---
triple:          'arm64-apple-darwin'
binary-path:     MAIN
relocations:
  - { offsetInCU: 0x964C, offset: 0x964C, size: 0x8, addend: 0x0, symName: __ZNSt3__124__put_character_sequenceB7v160006IcNS_11char_traitsIcEEEERNS_13basic_ostreamIT_T0_EES7_PKS4_m, symObjAddr: 0x7178, symBinAddr: 0x100009310, symSize: 0x1F4 }
  - { offsetInCU: 0xC045, offset: 0xC045, size: 0x8, addend: 0x0, symName: __ZNSt3__1lsB7v160006INS_11char_traitsIcEEEERNS_13basic_ostreamIcT_EES6_PKc, symObjAddr: 0x548, symBinAddr: 0x1000026E0, symSize: 0x48 }
  - { offsetInCU: 0xC08B, offset: 0xC08B, size: 0x8, addend: 0x0, symName: __ZNSt3__14endlB7v160006IcNS_11char_traitsIcEEEERNS_13basic_ostreamIT_T0_EES7_, symObjAddr: 0x5BC, symBinAddr: 0x100002754, symSize: 0x58 }
  - { offsetInCU: 0xC0CB, offset: 0xC0CB, size: 0x8, addend: 0x0, symName: __ZNSt3__1lsB7v160006IcNS_11char_traitsIcEEEERNS_13basic_ostreamIT_T0_EES7_RKNS_8__iom_t5E, symObjAddr: 0xE54, symBinAddr: 0x100002FEC, symSize: 0x40 }
  - { offsetInCU: 0xC117, offset: 0xC117, size: 0x8, addend: 0x0, symName: __ZNSt3__15fixedB7v160006ERNS_8ios_baseE, symObjAddr: 0xED4, symBinAddr: 0x10000306C, symSize: 0x30 }
  - { offsetInCU: 0xC145, offset: 0xC145, size: 0x8, addend: 0x0, symName: __ZNSt3__112setprecisionB7v160006Ei, symObjAddr: 0xF04, symBinAddr: 0x10000309C, symSize: 0x2C }
  - { offsetInCU: 0xC171, offset: 0xC171, size: 0x8, addend: 0x0, symName: __ZNSt3__1lsB7v160006IcNS_11char_traitsIcEENS_9allocatorIcEEEERNS_13basic_ostreamIT_T0_EES9_RKNS_12basic_stringIS6_S7_T1_EE, symObjAddr: 0xF5C, symBinAddr: 0x1000030F4, symSize: 0x4C }
  - { offsetInCU: 0xC1C9, offset: 0xC1C9, size: 0x8, addend: 0x0, symName: __ZNSt3__18count_ifB7v160006INS_11__wrap_iterIPK7ProcessEE10IsCpuBoundEENS_15iterator_traitsIT_E15difference_typeES8_S8_T0_, symObjAddr: 0x1A10, symBinAddr: 0x100003BA8, symSize: 0x7C }
  - { offsetInCU: 0xCF6C, offset: 0xCF6C, size: 0x8, addend: 0x0, symName: __ZNSt3__119__debug_db_insert_cB7v160006INS_6vectorIiNS_9allocatorIiEEEEEEvPT_, symObjAddr: 0x2590, symBinAddr: 0x100004728, symSize: 0x10 }
  - { offsetInCU: 0xCF9D, offset: 0xCF9D, size: 0x8, addend: 0x0, symName: __ZNSt3__118__debug_db_erase_cB7v160006INS_6vectorIiNS_9allocatorIiEEEEEEvPT_, symObjAddr: 0x28E0, symBinAddr: 0x100004A78, symSize: 0x10 }
  - { offsetInCU: 0xCFCE, offset: 0xCFCE, size: 0x8, addend: 0x0, symName: __ZNSt3__112__to_addressB7v160006IiEEPT_S2_, symObjAddr: 0x29FC, symBinAddr: 0x100004B94, symSize: 0x14 }
  - { offsetInCU: 0xD003, offset: 0xD003, size: 0x8, addend: 0x0, symName: __ZNSt3__130__libcpp_is_constant_evaluatedB7v160006Ev, symObjAddr: 0x2B60, symBinAddr: 0x100004CF8, symSize: 0xC }
  - { offsetInCU: 0xD020, offset: 0xD020, size: 0x8, addend: 0x0, symName: __ZNSt3__119__libcpp_deallocateB7v160006EPvmm, symObjAddr: 0x2B6C, symBinAddr: 0x100004D04, symSize: 0x30 }
  - { offsetInCU: 0xD068, offset: 0xD068, size: 0x8, addend: 0x0, symName: __ZNSt3__127__do_deallocate_handle_sizeB7v160006IJEEEvPvmDpT_, symObjAddr: 0x2B9C, symBinAddr: 0x100004D34, symSize: 0x28 }
  - { offsetInCU: 0xD0A6, offset: 0xD0A6, size: 0x8, addend: 0x0, symName: __ZNSt3__124__libcpp_operator_deleteB7v160006IJPvEEEvDpT_, symObjAddr: 0x2BC4, symBinAddr: 0x100004D5C, symSize: 0x24 }
  - { offsetInCU: 0xD0DB, offset: 0xD0DB, size: 0x8, addend: 0x0, symName: __ZNSt3__112__to_addressB7v160006IP7ProcessEEPT_S4_, symObjAddr: 0x3504, symBinAddr: 0x10000569C, symSize: 0x14 }
  - { offsetInCU: 0xD110, offset: 0xD110, size: 0x8, addend: 0x0, symName: __ZNSt3__1neB7v160006ERKNS_16__deque_iteratorI7ProcessPS1_RS1_PS2_lLl51EEES7_, symObjAddr: 0x3AE0, symBinAddr: 0x100005C78, symSize: 0x34 }
  - { offsetInCU: 0xD14D, offset: 0xD14D, size: 0x8, addend: 0x0, symName: __ZNSt3__1eqB7v160006ERKNS_16__deque_iteratorI7ProcessPS1_RS1_PS2_lLl51EEES7_, symObjAddr: 0x3D74, symBinAddr: 0x100005F0C, symSize: 0x30 }
  - { offsetInCU: 0xD1BD, offset: 0xD1BD, size: 0x8, addend: 0x0, symName: __ZNSt3__119__debug_db_insert_cB7v160006INS_12basic_stringIcNS_11char_traitsIcEENS_9allocatorIcEEEEEEvPT_, symObjAddr: 0x4DE4, symBinAddr: 0x100006F7C, symSize: 0x10 }
  - { offsetInCU: 0xD1EE, offset: 0xD1EE, size: 0x8, addend: 0x0, symName: __ZNSt3__118__constexpr_strlenB7v160006EPKc, symObjAddr: 0x4EB0, symBinAddr: 0x100007048, symSize: 0x24 }
  - { offsetInCU: 0xD21A, offset: 0xD21A, size: 0x8, addend: 0x0, symName: __ZNSt3__122__make_exception_guardB7v160006INS_6vectorI7ProcessNS_9allocatorIS2_EEE16__destroy_vectorEEENS_28__exception_guard_exceptionsIT_EES8_, symObjAddr: 0x5064, symBinAddr: 0x1000071FC, symSize: 0x40 }
  - { offsetInCU: 0xD24F, offset: 0xD24F, size: 0x8, addend: 0x0, symName: __ZNSt3__119__debug_db_insert_cB7v160006INS_6vectorI7ProcessNS_9allocatorIS2_EEEEEEvPT_, symObjAddr: 0x50D8, symBinAddr: 0x100007270, symSize: 0x10 }
  - { offsetInCU: 0xD280, offset: 0xD280, size: 0x8, addend: 0x0, symName: __ZNSt3__119__allocate_at_leastB7v160006INS_9allocatorI7ProcessEEEENS_19__allocation_resultINS_16allocator_traitsIT_E7pointerEEERS6_m, symObjAddr: 0x5430, symBinAddr: 0x1000075C8, symSize: 0x40 }
  - { offsetInCU: 0xD2C3, offset: 0xD2C3, size: 0x8, addend: 0x0, symName: __ZNSt3__13minB7v160006ImEERKT_S3_S3_, symObjAddr: 0x5588, symBinAddr: 0x100007720, symSize: 0x2C }
  - { offsetInCU: 0xD507, offset: 0xD507, size: 0x8, addend: 0x0, symName: __ZNSt3__13minB7v160006ImNS_6__lessImmEEEERKT_S5_S5_T0_, symObjAddr: 0x55EC, symBinAddr: 0x100007784, symSize: 0x54 }
  - { offsetInCU: 0xD59C, offset: 0xD59C, size: 0x8, addend: 0x0, symName: __ZNSt3__120__throw_length_errorB7v160006EPKc, symObjAddr: 0x5694, symBinAddr: 0x10000782C, symSize: 0x64 }
  - { offsetInCU: 0xD5C4, offset: 0xD5C4, size: 0x8, addend: 0x0, symName: __ZNSt3__117__libcpp_allocateB7v160006Emm, symObjAddr: 0x5838, symBinAddr: 0x1000079D0, symSize: 0x28 }
  - { offsetInCU: 0xD601, offset: 0xD601, size: 0x8, addend: 0x0, symName: __ZNSt3__121__libcpp_operator_newB7v160006IJmEEEPvDpT_, symObjAddr: 0x5860, symBinAddr: 0x1000079F8, symSize: 0x24 }
  - { offsetInCU: 0xD63A, offset: 0xD63A, size: 0x8, addend: 0x0, symName: __ZNSt3__112__to_addressB7v160006I7ProcessEEPT_S3_, symObjAddr: 0x5968, symBinAddr: 0x100007B00, symSize: 0x14 }
  - { offsetInCU: 0xD66F, offset: 0xD66F, size: 0x8, addend: 0x0, symName: __ZNSt3__130__uninitialized_allocator_copyB7v160006INS_9allocatorI7ProcessEEPS2_S4_S4_EET2_RT_T0_T1_S5_, symObjAddr: 0x5A18, symBinAddr: 0x100007BB0, symSize: 0xFC }
  - { offsetInCU: 0xD70D, offset: 0xD70D, size: 0x8, addend: 0x0, symName: __ZNSt3__122__make_exception_guardB7v160006INS_29_AllocatorDestroyRangeReverseINS_9allocatorI7ProcessEEPS3_EEEENS_28__exception_guard_exceptionsIT_EES8_, symObjAddr: 0x5B8C, symBinAddr: 0x100007D24, symSize: 0x4C }
  - { offsetInCU: 0xD743, offset: 0xD743, size: 0x8, addend: 0x0, symName: __ZNSt3__122__make_exception_guardB7v160006INS_6vectorIiNS_9allocatorIiEEE16__destroy_vectorEEENS_28__exception_guard_exceptionsIT_EES7_, symObjAddr: 0x5FF0, symBinAddr: 0x100008188, symSize: 0x40 }
  - { offsetInCU: 0xD778, offset: 0xD778, size: 0x8, addend: 0x0, symName: __ZNSt3__119__allocate_at_leastB7v160006INS_9allocatorIiEEEENS_19__allocation_resultINS_16allocator_traitsIT_E7pointerEEERS5_m, symObjAddr: 0x6334, symBinAddr: 0x1000084CC, symSize: 0x40 }
  - { offsetInCU: 0xD7BB, offset: 0xD7BB, size: 0x8, addend: 0x0, symName: __ZNSt3__130__uninitialized_allocator_copyB7v160006INS_9allocatorIiEEPiS3_S3_EET2_RT_T0_T1_S4_, symObjAddr: 0x6578, symBinAddr: 0x100008710, symSize: 0xFC }
  - { offsetInCU: 0xD859, offset: 0xD859, size: 0x8, addend: 0x0, symName: __ZNSt3__122__make_exception_guardB7v160006INS_29_AllocatorDestroyRangeReverseINS_9allocatorIiEEPiEEEENS_28__exception_guard_exceptionsIT_EES7_, symObjAddr: 0x66E4, symBinAddr: 0x10000887C, symSize: 0x4C }
  - { offsetInCU: 0xD88F, offset: 0xD88F, size: 0x8, addend: 0x0, symName: __ZNSt3__119__allocator_destroyB7v160006INS_9allocatorIiEENS_16reverse_iteratorIPiEES5_EEvRT_T0_T1_, symObjAddr: 0x6964, symBinAddr: 0x100008AFC, symSize: 0x70 }
  - { offsetInCU: 0xD8F2, offset: 0xD8F2, size: 0x8, addend: 0x0, symName: __ZNSt3__1neB7v160006IPiS1_EEbRKNS_16reverse_iteratorIT_EERKNS2_IT0_EE, symObjAddr: 0x6A08, symBinAddr: 0x100008BA0, symSize: 0x48 }
  - { offsetInCU: 0xD93E, offset: 0xD93E, size: 0x8, addend: 0x0, symName: __ZNSt3__112__to_addressB7v160006INS_16reverse_iteratorIPiEEvEENS_5decayIDTclsr19__to_address_helperIT_EE6__callclsr3stdE7declvalIRKS5_EEEEE4typeES7_, symObjAddr: 0x6A50, symBinAddr: 0x100008BE8, symSize: 0x24 }
  - { offsetInCU: 0xD99D, offset: 0xD99D, size: 0x8, addend: 0x0, symName: __ZNSt3__119__allocator_destroyB7v160006INS_9allocatorI7ProcessEENS_16reverse_iteratorIPS2_EES6_EEvRT_T0_T1_, symObjAddr: 0x6C84, symBinAddr: 0x100008E1C, symSize: 0x70 }
  - { offsetInCU: 0xDA00, offset: 0xDA00, size: 0x8, addend: 0x0, symName: __ZNSt3__1neB7v160006IP7ProcessS2_EEbRKNS_16reverse_iteratorIT_EERKNS3_IT0_EE, symObjAddr: 0x6D28, symBinAddr: 0x100008EC0, symSize: 0x48 }
  - { offsetInCU: 0xDA4C, offset: 0xDA4C, size: 0x8, addend: 0x0, symName: __ZNSt3__112__to_addressB7v160006INS_16reverse_iteratorIP7ProcessEEvEENS_5decayIDTclsr19__to_address_helperIT_EE6__callclsr3stdE7declvalIRKS6_EEEEE4typeES8_, symObjAddr: 0x6D70, symBinAddr: 0x100008F08, symSize: 0x24 }
  - { offsetInCU: 0xDAAB, offset: 0xDAAB, size: 0x8, addend: 0x0, symName: __ZNSt3__118__debug_db_erase_cB7v160006INS_6vectorI7ProcessNS_9allocatorIS2_EEEEEEvPT_, symObjAddr: 0x7064, symBinAddr: 0x1000091FC, symSize: 0x10 }
  - { offsetInCU: 0xDADC, offset: 0xDADC, size: 0x8, addend: 0x0, symName: __ZNSt3__116__pad_and_outputB7v160006IcNS_11char_traitsIcEEEENS_19ostreambuf_iteratorIT_T0_EES6_PKS4_S8_S8_RNS_8ios_baseES4_, symObjAddr: 0x7388, symBinAddr: 0x100009520, symSize: 0x248 }
  - { offsetInCU: 0xDBAB, offset: 0xDBAB, size: 0x8, addend: 0x0, symName: __ZNSt3__112__to_addressB7v160006IKcEEPT_S3_, symObjAddr: 0x7808, symBinAddr: 0x1000099A0, symSize: 0x14 }
  - { offsetInCU: 0xDC13, offset: 0xDC13, size: 0x8, addend: 0x0, symName: __ZNSt3__19use_facetB7v160006INS_5ctypeIcEEEERKT_RKNS_6localeE, symObjAddr: 0x7AE0, symBinAddr: 0x100009C78, symSize: 0x2C }
  - { offsetInCU: 0xE0E2, offset: 0xE0E2, size: 0x8, addend: 0x0, symName: __ZNSt3__13maxB7v160006ImEERKT_S3_S3_, symObjAddr: 0x8100, symBinAddr: 0x10000A298, symSize: 0x2C }
  - { offsetInCU: 0xE125, offset: 0xE125, size: 0x8, addend: 0x0, symName: __ZNSt3__13maxB7v160006ImNS_6__lessImmEEEERKT_S5_S5_T0_, symObjAddr: 0x812C, symBinAddr: 0x10000A2C4, symSize: 0x54 }
  - { offsetInCU: 0xE17F, offset: 0xE17F, size: 0x8, addend: 0x0, symName: __ZNSt3__142__uninitialized_allocator_move_if_noexceptB7v160006INS_9allocatorIiEENS_16reverse_iteratorIPiEES5_ivEET1_RT_T0_S9_S6_, symObjAddr: 0x83AC, symBinAddr: 0x10000A544, symSize: 0xE8 }
  - { offsetInCU: 0xE1FC, offset: 0xE1FC, size: 0x8, addend: 0x0, symName: __ZNSt3__14swapB7v160006IPiEEvRT_S3_, symObjAddr: 0x8494, symBinAddr: 0x10000A62C, symSize: 0x3C }
  - { offsetInCU: 0xE24D, offset: 0xE24D, size: 0x8, addend: 0x0, symName: __ZNSt3__125__debug_db_invalidate_allB7v160006INS_6vectorIiNS_9allocatorIiEEEEEEvPT_, symObjAddr: 0x84D0, symBinAddr: 0x10000A668, symSize: 0x10 }
  - { offsetInCU: 0xE2A3, offset: 0xE2A3, size: 0x8, addend: 0x0, symName: __ZNSt3__114__construct_atB7v160006IiJiEPiEEPT_S3_DpOT0_, symObjAddr: 0x84E0, symBinAddr: 0x10000A678, symSize: 0x2C }
  - { offsetInCU: 0xE313, offset: 0xE313, size: 0x8, addend: 0x0, symName: __ZNSt3__14moveB7v160006INS_16reverse_iteratorIPiEES3_EET0_T_S5_S4_, symObjAddr: 0x850C, symBinAddr: 0x10000A6A4, symSize: 0x78 }
  - { offsetInCU: 0xE36D, offset: 0xE36D, size: 0x8, addend: 0x0, symName: __ZNSt3__16__moveB7v160006INS_17_ClassicAlgPolicyENS_16reverse_iteratorIPiEES4_S4_EENS_4pairIT0_T2_EES6_T1_S7_, symObjAddr: 0x8584, symBinAddr: 0x10000A71C, symSize: 0x64 }
  - { offsetInCU: 0xE3D9, offset: 0xE3D9, size: 0x8, addend: 0x0, symName: __ZNSt3__123__dispatch_copy_or_moveB7v160006INS_17_ClassicAlgPolicyENS_11__move_loopIS1_EENS_14__move_trivialENS_16reverse_iteratorIPiEES7_S7_EENS_4pairIT2_T4_EES9_T3_SA_, symObjAddr: 0x85E8, symBinAddr: 0x10000A780, symSize: 0x7C }
  - { offsetInCU: 0xE457, offset: 0xE457, size: 0x8, addend: 0x0, symName: __ZNSt3__121__unwrap_and_dispatchB7v160006INS_10__overloadINS_11__move_loopINS_17_ClassicAlgPolicyEEENS_14__move_trivialEEENS_16reverse_iteratorIPiEES9_S9_Li0EEENS_4pairIT0_T2_EESB_T1_SC_, symObjAddr: 0x8664, symBinAddr: 0x10000A7FC, symSize: 0x12C }
  - { offsetInCU: 0xE4E7, offset: 0xE4E7, size: 0x8, addend: 0x0, symName: __ZNSt3__114__unwrap_rangeB7v160006INS_16reverse_iteratorIPiEES3_EENS_4pairIT0_S5_EET_S7_, symObjAddr: 0x8790, symBinAddr: 0x10000A928, symSize: 0x84 }
  - { offsetInCU: 0xE63B, offset: 0xE63B, size: 0x8, addend: 0x0, symName: __ZNSt3__113__unwrap_iterB7v160006INS_16reverse_iteratorIPiEENS_18__unwrap_iter_implIS3_Lb0EEELi0EEEDTclsrT0_8__unwrapclsr3stdE7declvalIT_EEEES7_, symObjAddr: 0x88B4, symBinAddr: 0x10000AA4C, symSize: 0x44 }
  - { offsetInCU: 0xE67F, offset: 0xE67F, size: 0x8, addend: 0x0, symName: __ZNSt3__19make_pairB7v160006INS_16reverse_iteratorIPiEES3_EENS_4pairINS_18__unwrap_ref_decayIT_E4typeENS5_IT0_E4typeEEEOS6_OS9_, symObjAddr: 0x88F8, symBinAddr: 0x10000AA90, symSize: 0x38 }
  - { offsetInCU: 0xE6CE, offset: 0xE6CE, size: 0x8, addend: 0x0, symName: __ZNSt3__114__rewrap_rangeB7v160006INS_16reverse_iteratorIPiEES3_EET_S4_T0_, symObjAddr: 0x8930, symBinAddr: 0x10000AAC8, symSize: 0x5C }
  - { offsetInCU: 0xE71A, offset: 0xE71A, size: 0x8, addend: 0x0, symName: __ZNSt3__113__rewrap_iterB7v160006INS_16reverse_iteratorIPiEES3_NS_18__unwrap_iter_implIS3_Lb0EEEEET_S6_T0_, symObjAddr: 0x898C, symBinAddr: 0x10000AB24, symSize: 0x88 }
  - { offsetInCU: 0xE821, offset: 0xE821, size: 0x8, addend: 0x0, symName: __ZNSt3__142__uninitialized_allocator_move_if_noexceptB7v160006INS_9allocatorI7ProcessEENS_16reverse_iteratorIPS2_EES6_S6_EET2_RT_T0_T1_S7_, symObjAddr: 0x9344, symBinAddr: 0x10000B4DC, symSize: 0x124 }
  - { offsetInCU: 0xE8C1, offset: 0xE8C1, size: 0x8, addend: 0x0, symName: __ZNSt3__14swapB7v160006IP7ProcessEEvRT_S4_, symObjAddr: 0x9468, symBinAddr: 0x10000B600, symSize: 0x3C }
  - { offsetInCU: 0xE912, offset: 0xE912, size: 0x8, addend: 0x0, symName: __ZNSt3__125__debug_db_invalidate_allB7v160006INS_6vectorI7ProcessNS_9allocatorIS2_EEEEEEvPT_, symObjAddr: 0x94A4, symBinAddr: 0x10000B63C, symSize: 0x10 }
  - { offsetInCU: 0xE943, offset: 0xE943, size: 0x8, addend: 0x0, symName: __ZNSt3__122__make_exception_guardB7v160006INS_29_AllocatorDestroyRangeReverseINS_9allocatorI7ProcessEENS_16reverse_iteratorIPS3_EEEEEENS_28__exception_guard_exceptionsIT_EESA_, symObjAddr: 0x94B4, symBinAddr: 0x10000B64C, symSize: 0x4C }
  - { offsetInCU: 0xE979, offset: 0xE979, size: 0x8, addend: 0x0, symName: __ZNSt3__119__allocator_destroyB7v160006INS_9allocatorI7ProcessEENS_16reverse_iteratorINS4_IPS2_EEEES7_EEvRT_T0_T1_, symObjAddr: 0x9724, symBinAddr: 0x10000B8BC, symSize: 0x70 }
  - { offsetInCU: 0xE9DE, offset: 0xE9DE, size: 0x8, addend: 0x0, symName: __ZNSt3__1neB7v160006INS_16reverse_iteratorIP7ProcessEES4_EEbRKNS1_IT_EERKNS1_IT0_EE, symObjAddr: 0x97D0, symBinAddr: 0x10000B968, symSize: 0x60 }
  - { offsetInCU: 0xEA2A, offset: 0xEA2A, size: 0x8, addend: 0x0, symName: __ZNSt3__112__to_addressB7v160006INS_16reverse_iteratorINS1_IP7ProcessEEEEvEENS_5decayIDTclsr19__to_address_helperIT_EE6__callclsr3stdE7declvalIRKS7_EEEEE4typeES9_, symObjAddr: 0x9830, symBinAddr: 0x10000B9C8, symSize: 0x24 }
  - { offsetInCU: 0xEA89, offset: 0xEA89, size: 0x8, addend: 0x0, symName: __ZNSt3__1neB7v160006IPK7ProcessEEbRKNS_11__wrap_iterIT_EES8_, symObjAddr: 0x9C4C, symBinAddr: 0x10000BDE4, symSize: 0x34 }
  - { offsetInCU: 0xEACC, offset: 0xEACC, size: 0x8, addend: 0x0, symName: __ZNSt3__1eqB7v160006IPK7ProcessEEbRKNS_11__wrap_iterIT_EES8_, symObjAddr: 0x9CD8, symBinAddr: 0x10000BE70, symSize: 0x48 }
  - { offsetInCU: 0xED50, offset: 0xED50, size: 0x8, addend: 0x0, symName: __ZSt28__throw_bad_array_new_lengthB7v160006v, symObjAddr: 0x5804, symBinAddr: 0x10000799C, symSize: 0x34 }
  - { offsetInCU: 0xFAB2, offset: 0xFAB2, size: 0x8, addend: 0x0, symName: __ZNSt3__16vectorIiNS_9allocatorIiEEE26__swap_out_circular_bufferERNS_14__split_bufferIiRS2_EE, symObjAddr: 0x7FBC, symBinAddr: 0x10000A154, symSize: 0x118 }
  - { offsetInCU: 0xFAF5, offset: 0xFAF5, size: 0x8, addend: 0x0, symName: __ZNSt3__16vectorI7ProcessNS_9allocatorIS1_EEE26__swap_out_circular_bufferERNS_14__split_bufferIS1_RS3_EE, symObjAddr: 0x8FC8, symBinAddr: 0x10000B160, symSize: 0x118 }
  - { offsetInCU: 0x11DBD, offset: 0x11DBD, size: 0x8, addend: 0x0, symName: __Z15parse_argumentsiPPcRiS1_S1_RdS1_S1_S2_S1_, symObjAddr: 0x0, symBinAddr: 0x100002198, symSize: 0x548 }
  - { offsetInCU: 0x11E77, offset: 0x11E77, size: 0x8, addend: 0x0, symName: __ZNSt3__113basic_ostreamIcNS_11char_traitsIcEEElsB7v160006EPFRS3_S4_E, symObjAddr: 0x590, symBinAddr: 0x100002728, symSize: 0x2C }
  - { offsetInCU: 0x11EB0, offset: 0x11EB0, size: 0x8, addend: 0x0, symName: __ZNSt3__112basic_stringIcNS_11char_traitsIcEENS_9allocatorIcEEEC1B7v160006IDnEEPKc, symObjAddr: 0x614, symBinAddr: 0x1000027AC, symSize: 0x34 }
  - { offsetInCU: 0x11EED, offset: 0x11EED, size: 0x8, addend: 0x0, symName: __Z8next_expR15RandomGeneratordi, symObjAddr: 0x654, symBinAddr: 0x1000027EC, symSize: 0x70 }
  - { offsetInCU: 0x11F9F, offset: 0x11F9F, size: 0x8, addend: 0x0, symName: __ZN15RandomGenerator7drand48Ev, symObjAddr: 0x6C4, symBinAddr: 0x10000285C, symSize: 0x48 }
  - { offsetInCU: 0x11FC4, offset: 0x11FC4, size: 0x8, addend: 0x0, symName: __Z18generate_processesR15RandomGeneratoriidi, symObjAddr: 0x70C, symBinAddr: 0x1000028A4, symSize: 0x300 }
  - { offsetInCU: 0x120C3, offset: 0x120C3, size: 0x8, addend: 0x0, symName: __ZNSt3__16vectorI7ProcessNS_9allocatorIS1_EEEC1B7v160006Ev, symObjAddr: 0xA0C, symBinAddr: 0x100002BA4, symSize: 0x2C }
  - { offsetInCU: 0x120ED, offset: 0x120ED, size: 0x8, addend: 0x0, symName: __ZN7ProcessC1Ev, symObjAddr: 0xA38, symBinAddr: 0x100002BD0, symSize: 0x2C }
  - { offsetInCU: 0x12117, offset: 0x12117, size: 0x8, addend: 0x0, symName: __ZNSt3__112basic_stringIcNS_11char_traitsIcEENS_9allocatorIcEEEaSB7v160006EPKc, symObjAddr: 0xA64, symBinAddr: 0x100002BFC, symSize: 0x2C }
  - { offsetInCU: 0x1214C, offset: 0x1214C, size: 0x8, addend: 0x0, symName: __ZNSt3__16vectorIiNS_9allocatorIiEEE9push_backB7v160006ERKi, symObjAddr: 0xA90, symBinAddr: 0x100002C28, symSize: 0x6C }
  - { offsetInCU: 0x12183, offset: 0x12183, size: 0x8, addend: 0x0, symName: __ZNSt3__16vectorI7ProcessNS_9allocatorIS1_EEE9push_backB7v160006ERKS1_, symObjAddr: 0xAFC, symBinAddr: 0x100002C94, symSize: 0x6C }
  - { offsetInCU: 0x121BA, offset: 0x121BA, size: 0x8, addend: 0x0, symName: __ZN7ProcessD1Ev, symObjAddr: 0xB68, symBinAddr: 0x100002D00, symSize: 0x2C }
  - { offsetInCU: 0x121E6, offset: 0x121E6, size: 0x8, addend: 0x0, symName: __ZNSt3__16vectorI7ProcessNS_9allocatorIS1_EEED1B7v160006Ev, symObjAddr: 0xB94, symBinAddr: 0x100002D2C, symSize: 0x2C }
  - { offsetInCU: 0x12210, offset: 0x12210, size: 0x8, addend: 0x0, symName: __Z11part1_printRKNSt3__16vectorI7ProcessNS_9allocatorIS1_EEEEiiidi, symObjAddr: 0xBC0, symBinAddr: 0x100002D58, symSize: 0x294 }
  - { offsetInCU: 0x122C7, offset: 0x122C7, size: 0x8, addend: 0x0, symName: __ZNSt3__113basic_ostreamIcNS_11char_traitsIcEEElsB7v160006EPFRNS_8ios_baseES5_E, symObjAddr: 0xE94, symBinAddr: 0x10000302C, symSize: 0x40 }
  - { offsetInCU: 0x122FB, offset: 0x122FB, size: 0x8, addend: 0x0, symName: __ZNKSt3__16vectorI7ProcessNS_9allocatorIS1_EEEixB7v160006Em, symObjAddr: 0xF30, symBinAddr: 0x1000030C8, symSize: 0x2C }
  - { offsetInCU: 0x12332, offset: 0x12332, size: 0x8, addend: 0x0, symName: __ZNKSt3__16vectorIiNS_9allocatorIiEEE4sizeB7v160006Ev, symObjAddr: 0xFA8, symBinAddr: 0x100003140, symSize: 0x28 }
  - { offsetInCU: 0x12358, offset: 0x12358, size: 0x8, addend: 0x0, symName: __Z16write_statisticsRKNSt3__16vectorI7ProcessNS_9allocatorIS1_EEEERKNS_12basic_stringIcNS_11char_traitsIcEENS2_IcEEEE, symObjAddr: 0xFD0, symBinAddr: 0x100003168, symSize: 0xA18 }
  - { offsetInCU: 0x1250A, offset: 0x1250A, size: 0x8, addend: 0x0, symName: __ZNKSt3__16vectorI7ProcessNS_9allocatorIS1_EEE4sizeB7v160006Ev, symObjAddr: 0x19E8, symBinAddr: 0x100003B80, symSize: 0x28 }
  - { offsetInCU: 0x12530, offset: 0x12530, size: 0x8, addend: 0x0, symName: __ZNKSt3__16vectorI7ProcessNS_9allocatorIS1_EEE5beginB7v160006Ev, symObjAddr: 0x1A8C, symBinAddr: 0x100003C24, symSize: 0x30 }
  - { offsetInCU: 0x12558, offset: 0x12558, size: 0x8, addend: 0x0, symName: __ZNKSt3__16vectorI7ProcessNS_9allocatorIS1_EEE3endB7v160006Ev, symObjAddr: 0x1ABC, symBinAddr: 0x100003C54, symSize: 0x30 }
  - { offsetInCU: 0x12580, offset: 0x12580, size: 0x8, addend: 0x0, symName: __ZNKSt3__16vectorIiNS_9allocatorIiEEEixB7v160006Em, symObjAddr: 0x1AEC, symBinAddr: 0x100003C84, symSize: 0x24 }
  - { offsetInCU: 0x12651, offset: 0x12651, size: 0x8, addend: 0x0, symName: __ZNSt3__114basic_ofstreamIcNS_11char_traitsIcEEEC1ERKNS_12basic_stringIcS2_NS_9allocatorIcEEEEj, symObjAddr: 0x1B10, symBinAddr: 0x100003CA8, symSize: 0x17C }
  - { offsetInCU: 0x1269B, offset: 0x1269B, size: 0x8, addend: 0x0, symName: __ZNSt3__114basic_ofstreamIcNS_11char_traitsIcEEE5closeEv, symObjAddr: 0x1C8C, symBinAddr: 0x100003E24, symSize: 0x58 }
  - { offsetInCU: 0x126C8, offset: 0x126C8, size: 0x8, addend: 0x0, symName: __ZNSt3__114basic_ofstreamIcNS_11char_traitsIcEEED1Ev, symObjAddr: 0x1CE4, symBinAddr: 0x100003E7C, symSize: 0x70 }
  - { offsetInCU: 0x126F4, offset: 0x126F4, size: 0x8, addend: 0x0, symName: __Z11part2_printNSt3__16vectorI7ProcessNS_9allocatorIS1_EEEEidid, symObjAddr: 0x1D54, symBinAddr: 0x100003EEC, symSize: 0x39C }
  - { offsetInCU: 0x12928, offset: 0x12928, size: 0x8, addend: 0x0, symName: __ZN4fcfsC1ERKNSt3__16vectorI7ProcessNS0_9allocatorIS2_EEEEi, symObjAddr: 0x20F0, symBinAddr: 0x100004288, symSize: 0x3C }
  - { offsetInCU: 0x1296E, offset: 0x1296E, size: 0x8, addend: 0x0, symName: __ZNSt3__16vectorI7ProcessNS_9allocatorIS1_EEEC1ERKS4_, symObjAddr: 0x212C, symBinAddr: 0x1000042C4, symSize: 0x34 }
  - { offsetInCU: 0x12C42, offset: 0x12C42, size: 0x8, addend: 0x0, symName: __ZN3srtC1ERKNSt3__16vectorI7ProcessNS0_9allocatorIS2_EEEEidd, symObjAddr: 0x2160, symBinAddr: 0x1000042F8, symSize: 0x4C }
  - { offsetInCU: 0x12E2E, offset: 0x12E2E, size: 0x8, addend: 0x0, symName: __ZN2rrC1ERKNSt3__16vectorI7ProcessNS0_9allocatorIS2_EEEEii, symObjAddr: 0x21AC, symBinAddr: 0x100004344, symSize: 0x44 }
  - { offsetInCU: 0x12E82, offset: 0x12E82, size: 0x8, addend: 0x0, symName: __ZN2rrD1Ev, symObjAddr: 0x21F0, symBinAddr: 0x100004388, symSize: 0x2C }
  - { offsetInCU: 0x12EAE, offset: 0x12EAE, size: 0x8, addend: 0x0, symName: __ZN3srtD1Ev, symObjAddr: 0x221C, symBinAddr: 0x1000043B4, symSize: 0x2C }
  - { offsetInCU: 0x130EE, offset: 0x130EE, size: 0x8, addend: 0x0, symName: __ZN3sjfD1Ev, symObjAddr: 0x2248, symBinAddr: 0x1000043E0, symSize: 0x2C }
  - { offsetInCU: 0x1311A, offset: 0x1311A, size: 0x8, addend: 0x0, symName: __ZN4fcfsD1Ev, symObjAddr: 0x2274, symBinAddr: 0x10000440C, symSize: 0x2C }
  - { offsetInCU: 0x13146, offset: 0x13146, size: 0x8, addend: 0x0, symName: _main, symObjAddr: 0x22A0, symBinAddr: 0x100004438, symSize: 0x188 }
  - { offsetInCU: 0x13217, offset: 0x13217, size: 0x8, addend: 0x0, symName: __ZN15RandomGeneratorC1El, symObjAddr: 0x2428, symBinAddr: 0x1000045C0, symSize: 0x34 }
  - { offsetInCU: 0x1324F, offset: 0x1324F, size: 0x8, addend: 0x0, symName: __ZN7ProcessC2Ev, symObjAddr: 0x245C, symBinAddr: 0x1000045F4, symSize: 0x80 }
  - { offsetInCU: 0x13279, offset: 0x13279, size: 0x8, addend: 0x0, symName: __ZNSt3__16vectorIiNS_9allocatorIiEEEC1B7v160006Ev, symObjAddr: 0x24DC, symBinAddr: 0x100004674, symSize: 0x2C }
  - { offsetInCU: 0x132A3, offset: 0x132A3, size: 0x8, addend: 0x0, symName: __ZNSt3__16vectorIiNS_9allocatorIiEEEC2B7v160006Ev, symObjAddr: 0x2508, symBinAddr: 0x1000046A0, symSize: 0x4C }
  - { offsetInCU: 0x132D9, offset: 0x132D9, size: 0x8, addend: 0x0, symName: __ZNSt3__117__compressed_pairIPiNS_9allocatorIiEEEC1B7v160006IDnNS_18__default_init_tagEEEOT_OT0_, symObjAddr: 0x2554, symBinAddr: 0x1000046EC, symSize: 0x3C }
  - { offsetInCU: 0x13331, offset: 0x13331, size: 0x8, addend: 0x0, symName: __ZNSt3__117__compressed_pairIPiNS_9allocatorIiEEEC2B7v160006IDnNS_18__default_init_tagEEEOT_OT0_, symObjAddr: 0x25A0, symBinAddr: 0x100004738, symSize: 0x40 }
  - { offsetInCU: 0x13389, offset: 0x13389, size: 0x8, addend: 0x0, symName: __ZNSt3__122__compressed_pair_elemIPiLi0ELb0EEC2B7v160006IDnvEEOT_, symObjAddr: 0x25E0, symBinAddr: 0x100004778, symSize: 0x1C }
  - { offsetInCU: 0x133CB, offset: 0x133CB, size: 0x8, addend: 0x0, symName: __ZNSt3__122__compressed_pair_elemINS_9allocatorIiEELi1ELb1EEC2B7v160006ENS_18__default_init_tagE, symObjAddr: 0x25FC, symBinAddr: 0x100004794, symSize: 0x2C }
  - { offsetInCU: 0x13400, offset: 0x13400, size: 0x8, addend: 0x0, symName: __ZNSt3__19allocatorIiEC2B7v160006Ev, symObjAddr: 0x2628, symBinAddr: 0x1000047C0, symSize: 0x2C }
  - { offsetInCU: 0x1342A, offset: 0x1342A, size: 0x8, addend: 0x0, symName: __ZNSt3__116__non_trivial_ifILb1ENS_9allocatorIiEEEC2B7v160006Ev, symObjAddr: 0x2654, symBinAddr: 0x1000047EC, symSize: 0x14 }
  - { offsetInCU: 0x13454, offset: 0x13454, size: 0x8, addend: 0x0, symName: __ZN7ProcessD2Ev, symObjAddr: 0x2668, symBinAddr: 0x100004800, symSize: 0x68 }
  - { offsetInCU: 0x13480, offset: 0x13480, size: 0x8, addend: 0x0, symName: __ZNSt3__16vectorIiNS_9allocatorIiEEED1B7v160006Ev, symObjAddr: 0x26D0, symBinAddr: 0x100004868, symSize: 0x2C }
  - { offsetInCU: 0x134AA, offset: 0x134AA, size: 0x8, addend: 0x0, symName: __ZNSt3__16vectorIiNS_9allocatorIiEEED2B7v160006Ev, symObjAddr: 0x26FC, symBinAddr: 0x100004894, symSize: 0x3C }
  - { offsetInCU: 0x134D4, offset: 0x134D4, size: 0x8, addend: 0x0, symName: __ZNSt3__16vectorIiNS_9allocatorIiEEE16__destroy_vectorC1ERS3_, symObjAddr: 0x2738, symBinAddr: 0x1000048D0, symSize: 0x34 }
  - { offsetInCU: 0x1350D, offset: 0x1350D, size: 0x8, addend: 0x0, symName: __ZNSt3__16vectorIiNS_9allocatorIiEEE16__destroy_vectorclB7v160006Ev, symObjAddr: 0x276C, symBinAddr: 0x100004904, symSize: 0x9C }
  - { offsetInCU: 0x13533, offset: 0x13533, size: 0x8, addend: 0x0, symName: __ZNSt3__16vectorIiNS_9allocatorIiEEE16__destroy_vectorC2ERS3_, symObjAddr: 0x2808, symBinAddr: 0x1000049A0, symSize: 0x20 }
  - { offsetInCU: 0x1356C, offset: 0x1356C, size: 0x8, addend: 0x0, symName: __ZNKSt3__16vectorIiNS_9allocatorIiEEE17__annotate_deleteB7v160006Ev, symObjAddr: 0x2828, symBinAddr: 0x1000049C0, symSize: 0xB8 }
  - { offsetInCU: 0x13592, offset: 0x13592, size: 0x8, addend: 0x0, symName: __ZNSt3__16vectorIiNS_9allocatorIiEEE7__clearB7v160006Ev, symObjAddr: 0x28F0, symBinAddr: 0x100004A88, symSize: 0x28 }
  - { offsetInCU: 0x135B8, offset: 0x135B8, size: 0x8, addend: 0x0, symName: __ZNSt3__116allocator_traitsINS_9allocatorIiEEE10deallocateB7v160006ERS2_Pim, symObjAddr: 0x2918, symBinAddr: 0x100004AB0, symSize: 0x34 }
  - { offsetInCU: 0x135FA, offset: 0x135FA, size: 0x8, addend: 0x0, symName: __ZNSt3__16vectorIiNS_9allocatorIiEEE7__allocB7v160006Ev, symObjAddr: 0x294C, symBinAddr: 0x100004AE4, symSize: 0x28 }
  - { offsetInCU: 0x13620, offset: 0x13620, size: 0x8, addend: 0x0, symName: __ZNKSt3__16vectorIiNS_9allocatorIiEEE8capacityB7v160006Ev, symObjAddr: 0x2974, symBinAddr: 0x100004B0C, symSize: 0x40 }
  - { offsetInCU: 0x13646, offset: 0x13646, size: 0x8, addend: 0x0, symName: __ZNKSt3__16vectorIiNS_9allocatorIiEEE31__annotate_contiguous_containerB7v160006EPKvS5_S5_S5_, symObjAddr: 0x29B4, symBinAddr: 0x100004B4C, symSize: 0x20 }
  - { offsetInCU: 0x13698, offset: 0x13698, size: 0x8, addend: 0x0, symName: __ZNKSt3__16vectorIiNS_9allocatorIiEEE4dataB7v160006Ev, symObjAddr: 0x29D4, symBinAddr: 0x100004B6C, symSize: 0x28 }
  - { offsetInCU: 0x136BE, offset: 0x136BE, size: 0x8, addend: 0x0, symName: __ZNSt3__16vectorIiNS_9allocatorIiEEE22__base_destruct_at_endB7v160006EPi, symObjAddr: 0x2A10, symBinAddr: 0x100004BA8, symSize: 0xA0 }
  - { offsetInCU: 0x13702, offset: 0x13702, size: 0x8, addend: 0x0, symName: __ZNSt3__116allocator_traitsINS_9allocatorIiEEE7destroyB7v160006IivEEvRS2_PT_, symObjAddr: 0x2AB0, symBinAddr: 0x100004C48, symSize: 0x2C }
  - { offsetInCU: 0x1373F, offset: 0x1373F, size: 0x8, addend: 0x0, symName: __ZNSt3__19allocatorIiE7destroyB7v160006EPi, symObjAddr: 0x2ADC, symBinAddr: 0x100004C74, symSize: 0x14 }
  - { offsetInCU: 0x13773, offset: 0x13773, size: 0x8, addend: 0x0, symName: __ZNSt3__19allocatorIiE10deallocateB7v160006EPim, symObjAddr: 0x2AF0, symBinAddr: 0x100004C88, symSize: 0x70 }
  - { offsetInCU: 0x137B5, offset: 0x137B5, size: 0x8, addend: 0x0, symName: __ZNSt3__117__compressed_pairIPiNS_9allocatorIiEEE6secondB7v160006Ev, symObjAddr: 0x2BE8, symBinAddr: 0x100004D80, symSize: 0x24 }
  - { offsetInCU: 0x137DB, offset: 0x137DB, size: 0x8, addend: 0x0, symName: __ZNSt3__122__compressed_pair_elemINS_9allocatorIiEELi1ELb1EE5__getB7v160006Ev, symObjAddr: 0x2C0C, symBinAddr: 0x100004DA4, symSize: 0x14 }
  - { offsetInCU: 0x13801, offset: 0x13801, size: 0x8, addend: 0x0, symName: __ZNKSt3__16vectorIiNS_9allocatorIiEEE9__end_capB7v160006Ev, symObjAddr: 0x2C20, symBinAddr: 0x100004DB8, symSize: 0x28 }
  - { offsetInCU: 0x13827, offset: 0x13827, size: 0x8, addend: 0x0, symName: __ZNKSt3__117__compressed_pairIPiNS_9allocatorIiEEE5firstB7v160006Ev, symObjAddr: 0x2C48, symBinAddr: 0x100004DE0, symSize: 0x24 }
  - { offsetInCU: 0x1384D, offset: 0x1384D, size: 0x8, addend: 0x0, symName: __ZNKSt3__122__compressed_pair_elemIPiLi0ELb0EE5__getB7v160006Ev, symObjAddr: 0x2C6C, symBinAddr: 0x100004E04, symSize: 0x14 }
  - { offsetInCU: 0x13873, offset: 0x13873, size: 0x8, addend: 0x0, symName: __ZNSt3__18ios_base4setfB7v160006Ejj, symObjAddr: 0x2C80, symBinAddr: 0x100004E18, symSize: 0x5C }
  - { offsetInCU: 0x138C8, offset: 0x138C8, size: 0x8, addend: 0x0, symName: __ZNSt3__18ios_base6unsetfB7v160006Ej, symObjAddr: 0x2CDC, symBinAddr: 0x100004E74, symSize: 0x28 }
  - { offsetInCU: 0x138FF, offset: 0x138FF, size: 0x8, addend: 0x0, symName: __ZNSt3__18__iom_t5C1B7v160006Ei, symObjAddr: 0x2D04, symBinAddr: 0x100004E9C, symSize: 0x34 }
  - { offsetInCU: 0x13937, offset: 0x13937, size: 0x8, addend: 0x0, symName: __ZNSt3__18__iom_t5C2B7v160006Ei, symObjAddr: 0x2D38, symBinAddr: 0x100004ED0, symSize: 0x20 }
  - { offsetInCU: 0x1396F, offset: 0x1396F, size: 0x8, addend: 0x0, symName: __ZNSt3__114basic_ofstreamIcNS_11char_traitsIcEEED2Ev, symObjAddr: 0x2D58, symBinAddr: 0x100004EF0, symSize: 0x9C }
  - { offsetInCU: 0x139A9, offset: 0x139A9, size: 0x8, addend: 0x0, symName: __ZTv0_n24_NSt3__114basic_ofstreamIcNS_11char_traitsIcEEED1Ev, symObjAddr: 0x2DF4, symBinAddr: 0x100004F8C, symSize: 0x28 }
  - { offsetInCU: 0x139C0, offset: 0x139C0, size: 0x8, addend: 0x0, symName: __ZN4fcfsC2ERKNSt3__16vectorI7ProcessNS0_9allocatorIS2_EEEEi, symObjAddr: 0x2E1C, symBinAddr: 0x100004FB4, symSize: 0xE0 }
  - { offsetInCU: 0x13A06, offset: 0x13A06, size: 0x8, addend: 0x0, symName: __ZNSt3__15queueI7ProcessNS_5dequeIS1_NS_9allocatorIS1_EEEEEC1B7v160006Ev, symObjAddr: 0x2EFC, symBinAddr: 0x100005094, symSize: 0x2C }
  - { offsetInCU: 0x13A30, offset: 0x13A30, size: 0x8, addend: 0x0, symName: __ZNSt3__15queueI7ProcessNS_5dequeIS1_NS_9allocatorIS1_EEEEED1Ev, symObjAddr: 0x2F28, symBinAddr: 0x1000050C0, symSize: 0x2C }
  - { offsetInCU: 0x13A5D, offset: 0x13A5D, size: 0x8, addend: 0x0, symName: __ZNSt3__15queueI7ProcessNS_5dequeIS1_NS_9allocatorIS1_EEEEEC2B7v160006Ev, symObjAddr: 0x2F54, symBinAddr: 0x1000050EC, symSize: 0x2C }
  - { offsetInCU: 0x13A87, offset: 0x13A87, size: 0x8, addend: 0x0, symName: __ZNSt3__15dequeI7ProcessNS_9allocatorIS1_EEEC1B7v160006Ev, symObjAddr: 0x2F80, symBinAddr: 0x100005118, symSize: 0x2C }
  - { offsetInCU: 0x13AB1, offset: 0x13AB1, size: 0x8, addend: 0x0, symName: __ZNSt3__15dequeI7ProcessNS_9allocatorIS1_EEEC2B7v160006Ev, symObjAddr: 0x2FAC, symBinAddr: 0x100005144, symSize: 0x78 }
  - { offsetInCU: 0x13ADB, offset: 0x13ADB, size: 0x8, addend: 0x0, symName: __ZNSt3__114__split_bufferIP7ProcessNS_9allocatorIS2_EEEC1Ev, symObjAddr: 0x3024, symBinAddr: 0x1000051BC, symSize: 0x2C }
  - { offsetInCU: 0x13B0D, offset: 0x13B0D, size: 0x8, addend: 0x0, symName: __ZNSt3__117__compressed_pairImNS_9allocatorI7ProcessEEEC1B7v160006IiNS_18__default_init_tagEEEOT_OT0_, symObjAddr: 0x3050, symBinAddr: 0x1000051E8, symSize: 0x3C }
  - { offsetInCU: 0x13B65, offset: 0x13B65, size: 0x8, addend: 0x0, symName: __ZNSt3__114__split_bufferIP7ProcessNS_9allocatorIS2_EEED1Ev, symObjAddr: 0x308C, symBinAddr: 0x100005224, symSize: 0x2C }
  - { offsetInCU: 0x13B91, offset: 0x13B91, size: 0x8, addend: 0x0, symName: __ZNSt3__114__split_bufferIP7ProcessNS_9allocatorIS2_EEEC2Ev, symObjAddr: 0x30B8, symBinAddr: 0x100005250, symSize: 0x48 }
  - { offsetInCU: 0x13BBD, offset: 0x13BBD, size: 0x8, addend: 0x0, symName: __ZNSt3__117__compressed_pairIPP7ProcessNS_9allocatorIS2_EEEC1B7v160006IDnNS_18__default_init_tagEEEOT_OT0_, symObjAddr: 0x3100, symBinAddr: 0x100005298, symSize: 0x3C }
  - { offsetInCU: 0x13C15, offset: 0x13C15, size: 0x8, addend: 0x0, symName: __ZNSt3__117__compressed_pairIPP7ProcessNS_9allocatorIS2_EEEC2B7v160006IDnNS_18__default_init_tagEEEOT_OT0_, symObjAddr: 0x313C, symBinAddr: 0x1000052D4, symSize: 0x40 }
  - { offsetInCU: 0x13C6D, offset: 0x13C6D, size: 0x8, addend: 0x0, symName: __ZNSt3__122__compressed_pair_elemIPP7ProcessLi0ELb0EEC2B7v160006IDnvEEOT_, symObjAddr: 0x317C, symBinAddr: 0x100005314, symSize: 0x1C }
  - { offsetInCU: 0x13CAF, offset: 0x13CAF, size: 0x8, addend: 0x0, symName: __ZNSt3__122__compressed_pair_elemINS_9allocatorIP7ProcessEELi1ELb1EEC2B7v160006ENS_18__default_init_tagE, symObjAddr: 0x3198, symBinAddr: 0x100005330, symSize: 0x2C }
  - { offsetInCU: 0x13CE4, offset: 0x13CE4, size: 0x8, addend: 0x0, symName: __ZNSt3__19allocatorIP7ProcessEC2B7v160006Ev, symObjAddr: 0x31C4, symBinAddr: 0x10000535C, symSize: 0x2C }
  - { offsetInCU: 0x13D0E, offset: 0x13D0E, size: 0x8, addend: 0x0, symName: __ZNSt3__116__non_trivial_ifILb1ENS_9allocatorIP7ProcessEEEC2B7v160006Ev, symObjAddr: 0x31F0, symBinAddr: 0x100005388, symSize: 0x14 }
  - { offsetInCU: 0x13D38, offset: 0x13D38, size: 0x8, addend: 0x0, symName: __ZNSt3__117__compressed_pairImNS_9allocatorI7ProcessEEEC2B7v160006IiNS_18__default_init_tagEEEOT_OT0_, symObjAddr: 0x3204, symBinAddr: 0x10000539C, symSize: 0x40 }
  - { offsetInCU: 0x13D90, offset: 0x13D90, size: 0x8, addend: 0x0, symName: __ZNSt3__122__compressed_pair_elemImLi0ELb0EEC2B7v160006IivEEOT_, symObjAddr: 0x3244, symBinAddr: 0x1000053DC, symSize: 0x24 }
  - { offsetInCU: 0x13DD2, offset: 0x13DD2, size: 0x8, addend: 0x0, symName: __ZNSt3__122__compressed_pair_elemINS_9allocatorI7ProcessEELi1ELb1EEC2B7v160006ENS_18__default_init_tagE, symObjAddr: 0x3268, symBinAddr: 0x100005400, symSize: 0x2C }
  - { offsetInCU: 0x13E07, offset: 0x13E07, size: 0x8, addend: 0x0, symName: __ZNSt3__19allocatorI7ProcessEC2B7v160006Ev, symObjAddr: 0x3294, symBinAddr: 0x10000542C, symSize: 0x2C }
  - { offsetInCU: 0x13E31, offset: 0x13E31, size: 0x8, addend: 0x0, symName: __ZNSt3__116__non_trivial_ifILb1ENS_9allocatorI7ProcessEEEC2B7v160006Ev, symObjAddr: 0x32C0, symBinAddr: 0x100005458, symSize: 0x14 }
  - { offsetInCU: 0x13E5B, offset: 0x13E5B, size: 0x8, addend: 0x0, symName: __ZNSt3__114__split_bufferIP7ProcessNS_9allocatorIS2_EEED2Ev, symObjAddr: 0x32D4, symBinAddr: 0x10000546C, symSize: 0x80 }
  - { offsetInCU: 0x13E87, offset: 0x13E87, size: 0x8, addend: 0x0, symName: __ZNSt3__114__split_bufferIP7ProcessNS_9allocatorIS2_EEE5clearB7v160006Ev, symObjAddr: 0x3354, symBinAddr: 0x1000054EC, symSize: 0x28 }
  - { offsetInCU: 0x13EAD, offset: 0x13EAD, size: 0x8, addend: 0x0, symName: __ZNSt3__116allocator_traitsINS_9allocatorIP7ProcessEEE10deallocateB7v160006ERS4_PS3_m, symObjAddr: 0x337C, symBinAddr: 0x100005514, symSize: 0x34 }
  - { offsetInCU: 0x13EEF, offset: 0x13EEF, size: 0x8, addend: 0x0, symName: __ZNSt3__114__split_bufferIP7ProcessNS_9allocatorIS2_EEE7__allocB7v160006Ev, symObjAddr: 0x33B0, symBinAddr: 0x100005548, symSize: 0x28 }
  - { offsetInCU: 0x13F15, offset: 0x13F15, size: 0x8, addend: 0x0, symName: __ZNKSt3__114__split_bufferIP7ProcessNS_9allocatorIS2_EEE8capacityB7v160006Ev, symObjAddr: 0x33D8, symBinAddr: 0x100005570, symSize: 0x40 }
  - { offsetInCU: 0x13F3B, offset: 0x13F3B, size: 0x8, addend: 0x0, symName: __ZNSt3__114__split_bufferIP7ProcessNS_9allocatorIS2_EEE17__destruct_at_endB7v160006EPS2_, symObjAddr: 0x3418, symBinAddr: 0x1000055B0, symSize: 0x2C }
  - { offsetInCU: 0x13F6F, offset: 0x13F6F, size: 0x8, addend: 0x0, symName: __ZNSt3__114__split_bufferIP7ProcessNS_9allocatorIS2_EEE17__destruct_at_endB7v160006EPS2_NS_17integral_constantIbLb0EEE, symObjAddr: 0x3444, symBinAddr: 0x1000055DC, symSize: 0x94 }
  - { offsetInCU: 0x13FB0, offset: 0x13FB0, size: 0x8, addend: 0x0, symName: __ZNSt3__116allocator_traitsINS_9allocatorIP7ProcessEEE7destroyB7v160006IS3_vEEvRS4_PT_, symObjAddr: 0x34D8, symBinAddr: 0x100005670, symSize: 0x2C }
  - { offsetInCU: 0x13FED, offset: 0x13FED, size: 0x8, addend: 0x0, symName: __ZNSt3__19allocatorIP7ProcessE7destroyB7v160006EPS2_, symObjAddr: 0x3518, symBinAddr: 0x1000056B0, symSize: 0x14 }
  - { offsetInCU: 0x14021, offset: 0x14021, size: 0x8, addend: 0x0, symName: __ZNSt3__19allocatorIP7ProcessE10deallocateB7v160006EPS2_m, symObjAddr: 0x352C, symBinAddr: 0x1000056C4, symSize: 0x70 }
  - { offsetInCU: 0x14063, offset: 0x14063, size: 0x8, addend: 0x0, symName: __ZNSt3__117__compressed_pairIPP7ProcessNS_9allocatorIS2_EEE6secondB7v160006Ev, symObjAddr: 0x359C, symBinAddr: 0x100005734, symSize: 0x24 }
  - { offsetInCU: 0x14089, offset: 0x14089, size: 0x8, addend: 0x0, symName: __ZNSt3__122__compressed_pair_elemINS_9allocatorIP7ProcessEELi1ELb1EE5__getB7v160006Ev, symObjAddr: 0x35C0, symBinAddr: 0x100005758, symSize: 0x14 }
  - { offsetInCU: 0x140AF, offset: 0x140AF, size: 0x8, addend: 0x0, symName: __ZNKSt3__114__split_bufferIP7ProcessNS_9allocatorIS2_EEE9__end_capB7v160006Ev, symObjAddr: 0x35D4, symBinAddr: 0x10000576C, symSize: 0x28 }
  - { offsetInCU: 0x140D5, offset: 0x140D5, size: 0x8, addend: 0x0, symName: __ZNKSt3__117__compressed_pairIPP7ProcessNS_9allocatorIS2_EEE5firstB7v160006Ev, symObjAddr: 0x35FC, symBinAddr: 0x100005794, symSize: 0x24 }
  - { offsetInCU: 0x140FB, offset: 0x140FB, size: 0x8, addend: 0x0, symName: __ZNKSt3__122__compressed_pair_elemIPP7ProcessLi0ELb0EE5__getB7v160006Ev, symObjAddr: 0x3620, symBinAddr: 0x1000057B8, symSize: 0x14 }
  - { offsetInCU: 0x14121, offset: 0x14121, size: 0x8, addend: 0x0, symName: __ZNSt3__15queueI7ProcessNS_5dequeIS1_NS_9allocatorIS1_EEEEED2Ev, symObjAddr: 0x3634, symBinAddr: 0x1000057CC, symSize: 0x2C }
  - { offsetInCU: 0x1414E, offset: 0x1414E, size: 0x8, addend: 0x0, symName: __ZNSt3__15dequeI7ProcessNS_9allocatorIS1_EEED1B7v160006Ev, symObjAddr: 0x3660, symBinAddr: 0x1000057F8, symSize: 0x2C }
  - { offsetInCU: 0x14178, offset: 0x14178, size: 0x8, addend: 0x0, symName: __ZNSt3__15dequeI7ProcessNS_9allocatorIS1_EEED2B7v160006Ev, symObjAddr: 0x368C, symBinAddr: 0x100005824, symSize: 0x9C }
  - { offsetInCU: 0x141CF, offset: 0x141CF, size: 0x8, addend: 0x0, symName: __ZNSt3__15dequeI7ProcessNS_9allocatorIS1_EEE5clearEv, symObjAddr: 0x3728, symBinAddr: 0x1000058C0, symSize: 0x194 }
  - { offsetInCU: 0x14233, offset: 0x14233, size: 0x8, addend: 0x0, symName: __ZNSt3__114__split_bufferIP7ProcessNS_9allocatorIS2_EEE5beginB7v160006Ev, symObjAddr: 0x38BC, symBinAddr: 0x100005A54, symSize: 0x18 }
  - { offsetInCU: 0x14259, offset: 0x14259, size: 0x8, addend: 0x0, symName: __ZNSt3__114__split_bufferIP7ProcessNS_9allocatorIS2_EEE3endB7v160006Ev, symObjAddr: 0x38D4, symBinAddr: 0x100005A6C, symSize: 0x18 }
  - { offsetInCU: 0x1427F, offset: 0x1427F, size: 0x8, addend: 0x0, symName: __ZNSt3__116allocator_traitsINS_9allocatorI7ProcessEEE10deallocateB7v160006ERS3_PS2_m, symObjAddr: 0x38EC, symBinAddr: 0x100005A84, symSize: 0x34 }
  - { offsetInCU: 0x142C1, offset: 0x142C1, size: 0x8, addend: 0x0, symName: __ZNSt3__15dequeI7ProcessNS_9allocatorIS1_EEE7__allocB7v160006Ev, symObjAddr: 0x3920, symBinAddr: 0x100005AB8, symSize: 0x28 }
  - { offsetInCU: 0x142E7, offset: 0x142E7, size: 0x8, addend: 0x0, symName: __ZNSt3__15dequeI7ProcessNS_9allocatorIS1_EEE5beginB7v160006Ev, symObjAddr: 0x3948, symBinAddr: 0x100005AE0, symSize: 0xD4 }
  - { offsetInCU: 0x1431C, offset: 0x1431C, size: 0x8, addend: 0x0, symName: __ZNSt3__15dequeI7ProcessNS_9allocatorIS1_EEE3endB7v160006Ev, symObjAddr: 0x3A1C, symBinAddr: 0x100005BB4, symSize: 0xC4 }
  - { offsetInCU: 0x14360, offset: 0x14360, size: 0x8, addend: 0x0, symName: __ZNSt3__116allocator_traitsINS_9allocatorI7ProcessEEE7destroyB7v160006IS2_vEEvRS3_PT_, symObjAddr: 0x3B14, symBinAddr: 0x100005CAC, symSize: 0x2C }
  - { offsetInCU: 0x1439D, offset: 0x1439D, size: 0x8, addend: 0x0, symName: __ZNKSt3__116__deque_iteratorI7ProcessPS1_RS1_PS2_lLl51EEdeB7v160006Ev, symObjAddr: 0x3B40, symBinAddr: 0x100005CD8, symSize: 0x18 }
  - { offsetInCU: 0x143C3, offset: 0x143C3, size: 0x8, addend: 0x0, symName: __ZNSt3__116__deque_iteratorI7ProcessPS1_RS1_PS2_lLl51EEppB7v160006Ev, symObjAddr: 0x3B58, symBinAddr: 0x100005CF0, symSize: 0x70 }
  - { offsetInCU: 0x143E9, offset: 0x143E9, size: 0x8, addend: 0x0, symName: __ZNSt3__15dequeI7ProcessNS_9allocatorIS1_EEE6__sizeB7v160006Ev, symObjAddr: 0x3BC8, symBinAddr: 0x100005D60, symSize: 0x28 }
  - { offsetInCU: 0x1440F, offset: 0x1440F, size: 0x8, addend: 0x0, symName: __ZNKSt3__114__split_bufferIP7ProcessNS_9allocatorIS2_EEE4sizeB7v160006Ev, symObjAddr: 0x3BF0, symBinAddr: 0x100005D88, symSize: 0x28 }
  - { offsetInCU: 0x14435, offset: 0x14435, size: 0x8, addend: 0x0, symName: __ZNSt3__114__split_bufferIP7ProcessNS_9allocatorIS2_EEE5frontB7v160006Ev, symObjAddr: 0x3C18, symBinAddr: 0x100005DB0, symSize: 0x18 }
  - { offsetInCU: 0x1445B, offset: 0x1445B, size: 0x8, addend: 0x0, symName: __ZNSt3__114__split_bufferIP7ProcessNS_9allocatorIS2_EEE9pop_frontB7v160006Ev, symObjAddr: 0x3C30, symBinAddr: 0x100005DC8, symSize: 0x2C }
  - { offsetInCU: 0x14481, offset: 0x14481, size: 0x8, addend: 0x0, symName: __ZNKSt3__114__split_bufferIP7ProcessNS_9allocatorIS2_EEE5emptyB7v160006Ev, symObjAddr: 0x3C5C, symBinAddr: 0x100005DF4, symSize: 0x28 }
  - { offsetInCU: 0x144A7, offset: 0x144A7, size: 0x8, addend: 0x0, symName: __ZNSt3__116__deque_iteratorI7ProcessPS1_RS1_PS2_lLl51EEC1B7v160006ES4_S2_, symObjAddr: 0x3C84, symBinAddr: 0x100005E1C, symSize: 0x3C }
  - { offsetInCU: 0x144EF, offset: 0x144EF, size: 0x8, addend: 0x0, symName: __ZNSt3__116__deque_iteratorI7ProcessPS1_RS1_PS2_lLl51EEC2B7v160006ES4_S2_, symObjAddr: 0x3CC0, symBinAddr: 0x100005E58, symSize: 0x2C }
  - { offsetInCU: 0x14537, offset: 0x14537, size: 0x8, addend: 0x0, symName: __ZNKSt3__15dequeI7ProcessNS_9allocatorIS1_EEE4sizeB7v160006Ev, symObjAddr: 0x3CEC, symBinAddr: 0x100005E84, symSize: 0x28 }
  - { offsetInCU: 0x1455D, offset: 0x1455D, size: 0x8, addend: 0x0, symName: __ZNKSt3__15dequeI7ProcessNS_9allocatorIS1_EEE6__sizeB7v160006Ev, symObjAddr: 0x3D14, symBinAddr: 0x100005EAC, symSize: 0x28 }
  - { offsetInCU: 0x14583, offset: 0x14583, size: 0x8, addend: 0x0, symName: __ZNKSt3__117__compressed_pairImNS_9allocatorI7ProcessEEE5firstB7v160006Ev, symObjAddr: 0x3D3C, symBinAddr: 0x100005ED4, symSize: 0x24 }
  - { offsetInCU: 0x145A9, offset: 0x145A9, size: 0x8, addend: 0x0, symName: __ZNKSt3__122__compressed_pair_elemImLi0ELb0EE5__getB7v160006Ev, symObjAddr: 0x3D60, symBinAddr: 0x100005EF8, symSize: 0x14 }
  - { offsetInCU: 0x145CF, offset: 0x145CF, size: 0x8, addend: 0x0, symName: __ZNSt3__19allocatorI7ProcessE7destroyB7v160006EPS1_, symObjAddr: 0x3DA4, symBinAddr: 0x100005F3C, symSize: 0x28 }
  - { offsetInCU: 0x14603, offset: 0x14603, size: 0x8, addend: 0x0, symName: __ZNSt3__117__compressed_pairImNS_9allocatorI7ProcessEEE5firstB7v160006Ev, symObjAddr: 0x3DCC, symBinAddr: 0x100005F64, symSize: 0x24 }
  - { offsetInCU: 0x14629, offset: 0x14629, size: 0x8, addend: 0x0, symName: __ZNSt3__122__compressed_pair_elemImLi0ELb0EE5__getB7v160006Ev, symObjAddr: 0x3DF0, symBinAddr: 0x100005F88, symSize: 0x14 }
  - { offsetInCU: 0x1464F, offset: 0x1464F, size: 0x8, addend: 0x0, symName: __ZNSt3__114__split_bufferIP7ProcessNS_9allocatorIS2_EEE19__destruct_at_beginB7v160006EPS2_, symObjAddr: 0x3E04, symBinAddr: 0x100005F9C, symSize: 0x2C }
  - { offsetInCU: 0x14683, offset: 0x14683, size: 0x8, addend: 0x0, symName: __ZNSt3__114__split_bufferIP7ProcessNS_9allocatorIS2_EEE19__destruct_at_beginEPS2_NS_17integral_constantIbLb1EEE, symObjAddr: 0x3E30, symBinAddr: 0x100005FC8, symSize: 0x20 }
  - { offsetInCU: 0x146C4, offset: 0x146C4, size: 0x8, addend: 0x0, symName: __ZNSt3__19allocatorI7ProcessE10deallocateB7v160006EPS1_m, symObjAddr: 0x3E50, symBinAddr: 0x100005FE8, symSize: 0x74 }
  - { offsetInCU: 0x14706, offset: 0x14706, size: 0x8, addend: 0x0, symName: __ZNSt3__117__compressed_pairImNS_9allocatorI7ProcessEEE6secondB7v160006Ev, symObjAddr: 0x3EC4, symBinAddr: 0x10000605C, symSize: 0x24 }
  - { offsetInCU: 0x1472C, offset: 0x1472C, size: 0x8, addend: 0x0, symName: __ZNSt3__122__compressed_pair_elemINS_9allocatorI7ProcessEELi1ELb1EE5__getB7v160006Ev, symObjAddr: 0x3EE8, symBinAddr: 0x100006080, symSize: 0x14 }
  - { offsetInCU: 0x14752, offset: 0x14752, size: 0x8, addend: 0x0, symName: __ZN3srtC2ERKNSt3__16vectorI7ProcessNS0_9allocatorIS2_EEEEidd, symObjAddr: 0x3EFC, symBinAddr: 0x100006094, symSize: 0x1A8 }
  - { offsetInCU: 0x147D1, offset: 0x147D1, size: 0x8, addend: 0x0, symName: __ZNSt3__114priority_queueI7ProcessNS_6vectorIS1_NS_9allocatorIS1_EEEEN3srt20CompareRemainingTimeEEC1B7v160006Ev, symObjAddr: 0x40A4, symBinAddr: 0x10000623C, symSize: 0x2C }
  - { offsetInCU: 0x147FB, offset: 0x147FB, size: 0x8, addend: 0x0, symName: __ZNSt3__13mapIi7ProcessNS_4lessIiEENS_9allocatorINS_4pairIKiS1_EEEEEC1B7v160006Ev, symObjAddr: 0x40D0, symBinAddr: 0x100006268, symSize: 0x2C }
  - { offsetInCU: 0x14825, offset: 0x14825, size: 0x8, addend: 0x0, symName: __ZNSt3__114priority_queueIiNS_6vectorIiNS_9allocatorIiEEEENS_7greaterIiEEEC1B7v160006Ev, symObjAddr: 0x40FC, symBinAddr: 0x100006294, symSize: 0x2C }
  - { offsetInCU: 0x1484F, offset: 0x1484F, size: 0x8, addend: 0x0, symName: __ZNSt3__16vectorI7ProcessNS_9allocatorIS1_EEEixB7v160006Em, symObjAddr: 0x4128, symBinAddr: 0x1000062C0, symSize: 0x2C }
  - { offsetInCU: 0x14886, offset: 0x14886, size: 0x8, addend: 0x0, symName: __ZNSt3__13mapIi7ProcessNS_4lessIiEENS_9allocatorINS_4pairIKiS1_EEEEED1B7v160006Ev, symObjAddr: 0x4154, symBinAddr: 0x1000062EC, symSize: 0x2C }
  - { offsetInCU: 0x148B0, offset: 0x148B0, size: 0x8, addend: 0x0, symName: __ZNSt3__114priority_queueI7ProcessNS_6vectorIS1_NS_9allocatorIS1_EEEEN3srt20CompareRemainingTimeEED1Ev, symObjAddr: 0x4180, symBinAddr: 0x100006318, symSize: 0x2C }
  - { offsetInCU: 0x148DD, offset: 0x148DD, size: 0x8, addend: 0x0, symName: __ZNSt3__114priority_queueI7ProcessNS_6vectorIS1_NS_9allocatorIS1_EEEEN3srt20CompareRemainingTimeEEC2B7v160006Ev, symObjAddr: 0x41AC, symBinAddr: 0x100006344, symSize: 0x2C }
  - { offsetInCU: 0x14907, offset: 0x14907, size: 0x8, addend: 0x0, symName: __ZNSt3__13mapIi7ProcessNS_4lessIiEENS_9allocatorINS_4pairIKiS1_EEEEEC2B7v160006Ev, symObjAddr: 0x41D8, symBinAddr: 0x100006370, symSize: 0x40 }
  - { offsetInCU: 0x14931, offset: 0x14931, size: 0x8, addend: 0x0, symName: __ZNSt3__119__map_value_compareIiNS_12__value_typeIi7ProcessEENS_4lessIiEELb1EEC1B7v160006ES5_, symObjAddr: 0x4218, symBinAddr: 0x1000063B0, symSize: 0x2C }
  - { offsetInCU: 0x1496A, offset: 0x1496A, size: 0x8, addend: 0x0, symName: __ZNSt3__16__treeINS_12__value_typeIi7ProcessEENS_19__map_value_compareIiS3_NS_4lessIiEELb1EEENS_9allocatorIS3_EEEC1ERKS7_, symObjAddr: 0x4244, symBinAddr: 0x1000063DC, symSize: 0x34 }
  - { offsetInCU: 0x149A5, offset: 0x149A5, size: 0x8, addend: 0x0, symName: __ZNSt3__119__map_value_compareIiNS_12__value_typeIi7ProcessEENS_4lessIiEELb1EEC2B7v160006ES5_, symObjAddr: 0x4278, symBinAddr: 0x100006410, symSize: 0x14 }
  - { offsetInCU: 0x149DE, offset: 0x149DE, size: 0x8, addend: 0x0, symName: __ZNSt3__16__treeINS_12__value_typeIi7ProcessEENS_19__map_value_compareIiS3_NS_4lessIiEELb1EEENS_9allocatorIS3_EEEC2ERKS7_, symObjAddr: 0x428C, symBinAddr: 0x100006424, symSize: 0x70 }
  - { offsetInCU: 0x14A19, offset: 0x14A19, size: 0x8, addend: 0x0, symName: __ZNSt3__117__compressed_pairINS_15__tree_end_nodeIPNS_16__tree_node_baseIPvEEEENS_9allocatorINS_11__tree_nodeINS_12__value_typeIi7ProcessEES3_EEEEEC1B7v160006ILb1EvEEv, symObjAddr: 0x42FC, symBinAddr: 0x100006494, symSize: 0x2C }
  - { offsetInCU: 0x14A4E, offset: 0x14A4E, size: 0x8, addend: 0x0, symName: __ZNSt3__117__compressed_pairImNS_19__map_value_compareIiNS_12__value_typeIi7ProcessEENS_4lessIiEELb1EEEEC1B7v160006IiRKS7_EEOT_OT0_, symObjAddr: 0x4328, symBinAddr: 0x1000064C0, symSize: 0x3C }
  - { offsetInCU: 0x14AA6, offset: 0x14AA6, size: 0x8, addend: 0x0, symName: __ZNSt3__16__treeINS_12__value_typeIi7ProcessEENS_19__map_value_compareIiS3_NS_4lessIiEELb1EEENS_9allocatorIS3_EEE10__end_nodeB7v160006Ev, symObjAddr: 0x4364, symBinAddr: 0x1000064FC, symSize: 0x2C }
  - { offsetInCU: 0x14ACC, offset: 0x14ACC, size: 0x8, addend: 0x0, symName: __ZNSt3__16__treeINS_12__value_typeIi7ProcessEENS_19__map_value_compareIiS3_NS_4lessIiEELb1EEENS_9allocatorIS3_EEE12__begin_nodeB7v160006Ev, symObjAddr: 0x4390, symBinAddr: 0x100006528, symSize: 0x14 }
  - { offsetInCU: 0x14AF2, offset: 0x14AF2, size: 0x8, addend: 0x0, symName: __ZNSt3__117__compressed_pairINS_15__tree_end_nodeIPNS_16__tree_node_baseIPvEEEENS_9allocatorINS_11__tree_nodeINS_12__value_typeIi7ProcessEES3_EEEEEC2B7v160006ILb1EvEEv, symObjAddr: 0x43A4, symBinAddr: 0x10000653C, symSize: 0x34 }
  - { offsetInCU: 0x14B27, offset: 0x14B27, size: 0x8, addend: 0x0, symName: __ZNSt3__122__compressed_pair_elemINS_15__tree_end_nodeIPNS_16__tree_node_baseIPvEEEELi0ELb0EEC2B7v160006ENS_16__value_init_tagE, symObjAddr: 0x43D8, symBinAddr: 0x100006570, symSize: 0x2C }
  - { offsetInCU: 0x14B5C, offset: 0x14B5C, size: 0x8, addend: 0x0, symName: __ZNSt3__122__compressed_pair_elemINS_9allocatorINS_11__tree_nodeINS_12__value_typeIi7ProcessEEPvEEEELi1ELb1EEC2B7v160006ENS_16__value_init_tagE, symObjAddr: 0x4404, symBinAddr: 0x10000659C, symSize: 0x2C }
  - { offsetInCU: 0x14B91, offset: 0x14B91, size: 0x8, addend: 0x0, symName: __ZNSt3__115__tree_end_nodeIPNS_16__tree_node_baseIPvEEEC1B7v160006Ev, symObjAddr: 0x4430, symBinAddr: 0x1000065C8, symSize: 0x2C }
  - { offsetInCU: 0x14BBB, offset: 0x14BBB, size: 0x8, addend: 0x0, symName: __ZNSt3__115__tree_end_nodeIPNS_16__tree_node_baseIPvEEEC2B7v160006Ev, symObjAddr: 0x445C, symBinAddr: 0x1000065F4, symSize: 0x18 }
  - { offsetInCU: 0x14BE5, offset: 0x14BE5, size: 0x8, addend: 0x0, symName: __ZNSt3__19allocatorINS_11__tree_nodeINS_12__value_typeIi7ProcessEEPvEEEC2B7v160006Ev, symObjAddr: 0x4474, symBinAddr: 0x10000660C, symSize: 0x2C }
  - { offsetInCU: 0x14C0F, offset: 0x14C0F, size: 0x8, addend: 0x0, symName: __ZNSt3__116__non_trivial_ifILb1ENS_9allocatorINS_11__tree_nodeINS_12__value_typeIi7ProcessEEPvEEEEEC2B7v160006Ev, symObjAddr: 0x44A0, symBinAddr: 0x100006638, symSize: 0x14 }
  - { offsetInCU: 0x14C39, offset: 0x14C39, size: 0x8, addend: 0x0, symName: __ZNSt3__117__compressed_pairImNS_19__map_value_compareIiNS_12__value_typeIi7ProcessEENS_4lessIiEELb1EEEEC2B7v160006IiRKS7_EEOT_OT0_, symObjAddr: 0x44B4, symBinAddr: 0x10000664C, symSize: 0x44 }
  - { offsetInCU: 0x14C91, offset: 0x14C91, size: 0x8, addend: 0x0, symName: __ZNSt3__122__compressed_pair_elemINS_19__map_value_compareIiNS_12__value_typeIi7ProcessEENS_4lessIiEELb1EEELi1ELb1EEC2B7v160006IRKS7_vEEOT_, symObjAddr: 0x44F8, symBinAddr: 0x100006690, symSize: 0x18 }
  - { offsetInCU: 0x14CD3, offset: 0x14CD3, size: 0x8, addend: 0x0, symName: __ZNSt3__114pointer_traitsIPNS_15__tree_end_nodeIPNS_16__tree_node_baseIPvEEEEE10pointer_toB7v160006ERS6_, symObjAddr: 0x4510, symBinAddr: 0x1000066A8, symSize: 0x14 }
  - { offsetInCU: 0x14CF6, offset: 0x14CF6, size: 0x8, addend: 0x0, symName: __ZNSt3__117__compressed_pairINS_15__tree_end_nodeIPNS_16__tree_node_baseIPvEEEENS_9allocatorINS_11__tree_nodeINS_12__value_typeIi7ProcessEES3_EEEEE5firstB7v160006Ev, symObjAddr: 0x4524, symBinAddr: 0x1000066BC, symSize: 0x24 }
  - { offsetInCU: 0x14D1C, offset: 0x14D1C, size: 0x8, addend: 0x0, symName: __ZNSt3__122__compressed_pair_elemINS_15__tree_end_nodeIPNS_16__tree_node_baseIPvEEEELi0ELb0EE5__getB7v160006Ev, symObjAddr: 0x4548, symBinAddr: 0x1000066E0, symSize: 0x14 }
  - { offsetInCU: 0x14D42, offset: 0x14D42, size: 0x8, addend: 0x0, symName: __ZNSt3__114priority_queueIiNS_6vectorIiNS_9allocatorIiEEEENS_7greaterIiEEEC2B7v160006Ev, symObjAddr: 0x455C, symBinAddr: 0x1000066F4, symSize: 0x2C }
  - { offsetInCU: 0x14D6C, offset: 0x14D6C, size: 0x8, addend: 0x0, symName: __ZNSt3__13mapIi7ProcessNS_4lessIiEENS_9allocatorINS_4pairIKiS1_EEEEED2B7v160006Ev, symObjAddr: 0x4588, symBinAddr: 0x100006720, symSize: 0x2C }
  - { offsetInCU: 0x14D96, offset: 0x14D96, size: 0x8, addend: 0x0, symName: __ZNSt3__16__treeINS_12__value_typeIi7ProcessEENS_19__map_value_compareIiS3_NS_4lessIiEELb1EEENS_9allocatorIS3_EEED1Ev, symObjAddr: 0x45B4, symBinAddr: 0x10000674C, symSize: 0x2C }
  - { offsetInCU: 0x14DC2, offset: 0x14DC2, size: 0x8, addend: 0x0, symName: __ZNSt3__16__treeINS_12__value_typeIi7ProcessEENS_19__map_value_compareIiS3_NS_4lessIiEELb1EEENS_9allocatorIS3_EEED2Ev, symObjAddr: 0x45E0, symBinAddr: 0x100006778, symSize: 0x38 }
  - { offsetInCU: 0x14DEE, offset: 0x14DEE, size: 0x8, addend: 0x0, symName: __ZNSt3__16__treeINS_12__value_typeIi7ProcessEENS_19__map_value_compareIiS3_NS_4lessIiEELb1EEENS_9allocatorIS3_EEE7destroyEPNS_11__tree_nodeIS3_PvEE, symObjAddr: 0x4618, symBinAddr: 0x1000067B0, symSize: 0xC0 }
  - { offsetInCU: 0x14E43, offset: 0x14E43, size: 0x8, addend: 0x0, symName: __ZNKSt3__16__treeINS_12__value_typeIi7ProcessEENS_19__map_value_compareIiS3_NS_4lessIiEELb1EEENS_9allocatorIS3_EEE6__rootB7v160006Ev, symObjAddr: 0x46D8, symBinAddr: 0x100006870, symSize: 0x28 }
  - { offsetInCU: 0x14E69, offset: 0x14E69, size: 0x8, addend: 0x0, symName: __ZNSt3__16__treeINS_12__value_typeIi7ProcessEENS_19__map_value_compareIiS3_NS_4lessIiEELb1EEENS_9allocatorIS3_EEE12__node_allocB7v160006Ev, symObjAddr: 0x4700, symBinAddr: 0x100006898, symSize: 0x28 }
  - { offsetInCU: 0x14E8F, offset: 0x14E8F, size: 0x8, addend: 0x0, symName: __ZNSt3__116allocator_traitsINS_9allocatorINS_11__tree_nodeINS_12__value_typeIi7ProcessEEPvEEEEE7destroyB7v160006INS_4pairIKiS4_EEvvEEvRS8_PT_, symObjAddr: 0x4728, symBinAddr: 0x1000068C0, symSize: 0x28 }
  - { offsetInCU: 0x14EC9, offset: 0x14EC9, size: 0x8, addend: 0x0, symName: __ZNSt3__122__tree_key_value_typesINS_12__value_typeIi7ProcessEEE9__get_ptrB7v160006ERS3_, symObjAddr: 0x4750, symBinAddr: 0x1000068E8, symSize: 0x24 }
  - { offsetInCU: 0x14EED, offset: 0x14EED, size: 0x8, addend: 0x0, symName: __ZNSt3__116allocator_traitsINS_9allocatorINS_11__tree_nodeINS_12__value_typeIi7ProcessEEPvEEEEE10deallocateB7v160006ERS8_PS7_m, symObjAddr: 0x4774, symBinAddr: 0x10000690C, symSize: 0x34 }
  - { offsetInCU: 0x14F2F, offset: 0x14F2F, size: 0x8, addend: 0x0, symName: __ZNSt3__117__compressed_pairINS_15__tree_end_nodeIPNS_16__tree_node_baseIPvEEEENS_9allocatorINS_11__tree_nodeINS_12__value_typeIi7ProcessEES3_EEEEE6secondB7v160006Ev, symObjAddr: 0x47A8, symBinAddr: 0x100006940, symSize: 0x24 }
  - { offsetInCU: 0x14F55, offset: 0x14F55, size: 0x8, addend: 0x0, symName: __ZNSt3__122__compressed_pair_elemINS_9allocatorINS_11__tree_nodeINS_12__value_typeIi7ProcessEEPvEEEELi1ELb1EE5__getB7v160006Ev, symObjAddr: 0x47CC, symBinAddr: 0x100006964, symSize: 0x14 }
  - { offsetInCU: 0x14F7B, offset: 0x14F7B, size: 0x8, addend: 0x0, symName: __ZNSt3__14pairIKi7ProcessED1Ev, symObjAddr: 0x47E0, symBinAddr: 0x100006978, symSize: 0x2C }
  - { offsetInCU: 0x14FA7, offset: 0x14FA7, size: 0x8, addend: 0x0, symName: __ZNSt3__14pairIKi7ProcessED2Ev, symObjAddr: 0x480C, symBinAddr: 0x1000069A4, symSize: 0x30 }
  - { offsetInCU: 0x14FD3, offset: 0x14FD3, size: 0x8, addend: 0x0, symName: __ZNSt3__112__value_typeIi7ProcessE11__get_valueB7v160006Ev, symObjAddr: 0x483C, symBinAddr: 0x1000069D4, symSize: 0x14 }
  - { offsetInCU: 0x14FF9, offset: 0x14FF9, size: 0x8, addend: 0x0, symName: __ZNSt3__19allocatorINS_11__tree_nodeINS_12__value_typeIi7ProcessEEPvEEE10deallocateB7v160006EPS6_m, symObjAddr: 0x4850, symBinAddr: 0x1000069E8, symSize: 0x74 }
  - { offsetInCU: 0x1503B, offset: 0x1503B, size: 0x8, addend: 0x0, symName: __ZNKSt3__16__treeINS_12__value_typeIi7ProcessEENS_19__map_value_compareIiS3_NS_4lessIiEELb1EEENS_9allocatorIS3_EEE10__end_nodeB7v160006Ev, symObjAddr: 0x48C4, symBinAddr: 0x100006A5C, symSize: 0x2C }
  - { offsetInCU: 0x15061, offset: 0x15061, size: 0x8, addend: 0x0, symName: __ZNKSt3__117__compressed_pairINS_15__tree_end_nodeIPNS_16__tree_node_baseIPvEEEENS_9allocatorINS_11__tree_nodeINS_12__value_typeIi7ProcessEES3_EEEEE5firstB7v160006Ev, symObjAddr: 0x48F0, symBinAddr: 0x100006A88, symSize: 0x24 }
  - { offsetInCU: 0x15087, offset: 0x15087, size: 0x8, addend: 0x0, symName: __ZNKSt3__122__compressed_pair_elemINS_15__tree_end_nodeIPNS_16__tree_node_baseIPvEEEELi0ELb0EE5__getB7v160006Ev, symObjAddr: 0x4914, symBinAddr: 0x100006AAC, symSize: 0x14 }
  - { offsetInCU: 0x150AD, offset: 0x150AD, size: 0x8, addend: 0x0, symName: __ZNSt3__114priority_queueI7ProcessNS_6vectorIS1_NS_9allocatorIS1_EEEEN3srt20CompareRemainingTimeEED2Ev, symObjAddr: 0x4928, symBinAddr: 0x100006AC0, symSize: 0x2C }
  - { offsetInCU: 0x150DA, offset: 0x150DA, size: 0x8, addend: 0x0, symName: __ZN2rrC2ERKNSt3__16vectorI7ProcessNS0_9allocatorIS2_EEEEii, symObjAddr: 0x4954, symBinAddr: 0x100006AEC, symSize: 0xF4 }
  - { offsetInCU: 0x1512E, offset: 0x1512E, size: 0x8, addend: 0x0, symName: __ZN2rrD2Ev, symObjAddr: 0x4A48, symBinAddr: 0x100006BE0, symSize: 0x68 }
  - { offsetInCU: 0x1515A, offset: 0x1515A, size: 0x8, addend: 0x0, symName: __ZN3srtD2Ev, symObjAddr: 0x4AB0, symBinAddr: 0x100006C48, symSize: 0xCC }
  - { offsetInCU: 0x15186, offset: 0x15186, size: 0x8, addend: 0x0, symName: __ZNSt3__114priority_queueIiNS_6vectorIiNS_9allocatorIiEEEENS_7greaterIiEEED1Ev, symObjAddr: 0x4B7C, symBinAddr: 0x100006D14, symSize: 0x2C }
  - { offsetInCU: 0x151B3, offset: 0x151B3, size: 0x8, addend: 0x0, symName: __ZNSt3__114priority_queueIiNS_6vectorIiNS_9allocatorIiEEEENS_7greaterIiEEED2Ev, symObjAddr: 0x4BA8, symBinAddr: 0x100006D40, symSize: 0x2C }
  - { offsetInCU: 0x151E0, offset: 0x151E0, size: 0x8, addend: 0x0, symName: __ZN3sjfD2Ev, symObjAddr: 0x4BD4, symBinAddr: 0x100006D6C, symSize: 0x68 }
  - { offsetInCU: 0x1520C, offset: 0x1520C, size: 0x8, addend: 0x0, symName: __ZN4fcfsD2Ev, symObjAddr: 0x4C3C, symBinAddr: 0x100006DD4, symSize: 0x68 }
  - { offsetInCU: 0x15238, offset: 0x15238, size: 0x8, addend: 0x0, symName: __ZN15RandomGeneratorC2El, symObjAddr: 0x4CA4, symBinAddr: 0x100006E3C, symSize: 0x34 }
  - { offsetInCU: 0x15270, offset: 0x15270, size: 0x8, addend: 0x0, symName: __ZN15RandomGenerator7srand48El, symObjAddr: 0x4CD8, symBinAddr: 0x100006E70, symSize: 0x28 }
  - { offsetInCU: 0x152A4, offset: 0x152A4, size: 0x8, addend: 0x0, symName: __ZNSt3__112basic_stringIcNS_11char_traitsIcEENS_9allocatorIcEEEC2B7v160006IDnEEPKc, symObjAddr: 0x4D00, symBinAddr: 0x100006E98, symSize: 0x60 }
  - { offsetInCU: 0x152E2, offset: 0x152E2, size: 0x8, addend: 0x0, symName: __ZNSt3__117__compressed_pairINS_12basic_stringIcNS_11char_traitsIcEENS_9allocatorIcEEE5__repES5_EC1B7v160006INS_18__default_init_tagESA_EEOT_OT0_, symObjAddr: 0x4D60, symBinAddr: 0x100006EF8, symSize: 0x3C }
  - { offsetInCU: 0x1533A, offset: 0x1533A, size: 0x8, addend: 0x0, symName: __ZNSt3__111char_traitsIcE6lengthEPKc, symObjAddr: 0x4D9C, symBinAddr: 0x100006F34, symSize: 0x48 }
  - { offsetInCU: 0x1535D, offset: 0x1535D, size: 0x8, addend: 0x0, symName: __ZNSt3__117__compressed_pairINS_12basic_stringIcNS_11char_traitsIcEENS_9allocatorIcEEE5__repES5_EC2B7v160006INS_18__default_init_tagESA_EEOT_OT0_, symObjAddr: 0x4DF4, symBinAddr: 0x100006F8C, symSize: 0x3C }
  - { offsetInCU: 0x153B5, offset: 0x153B5, size: 0x8, addend: 0x0, symName: __ZNSt3__122__compressed_pair_elemINS_12basic_stringIcNS_11char_traitsIcEENS_9allocatorIcEEE5__repELi0ELb0EEC2B7v160006ENS_18__default_init_tagE, symObjAddr: 0x4E30, symBinAddr: 0x100006FC8, symSize: 0x14 }
  - { offsetInCU: 0x153EA, offset: 0x153EA, size: 0x8, addend: 0x0, symName: __ZNSt3__122__compressed_pair_elemINS_9allocatorIcEELi1ELb1EEC2B7v160006ENS_18__default_init_tagE, symObjAddr: 0x4E44, symBinAddr: 0x100006FDC, symSize: 0x2C }
  - { offsetInCU: 0x1541F, offset: 0x1541F, size: 0x8, addend: 0x0, symName: __ZNSt3__19allocatorIcEC2B7v160006Ev, symObjAddr: 0x4E70, symBinAddr: 0x100007008, symSize: 0x2C }
  - { offsetInCU: 0x15449, offset: 0x15449, size: 0x8, addend: 0x0, symName: __ZNSt3__116__non_trivial_ifILb1ENS_9allocatorIcEEEC2B7v160006Ev, symObjAddr: 0x4E9C, symBinAddr: 0x100007034, symSize: 0x14 }
  - { offsetInCU: 0x15473, offset: 0x15473, size: 0x8, addend: 0x0, symName: __ZNSt3__16vectorI7ProcessNS_9allocatorIS1_EEEC2ERKS4_, symObjAddr: 0x4ED4, symBinAddr: 0x10000706C, symSize: 0x11C }
  - { offsetInCU: 0x154DC, offset: 0x154DC, size: 0x8, addend: 0x0, symName: __ZNSt3__116allocator_traitsINS_9allocatorI7ProcessEEE37select_on_container_copy_constructionB7v160006IS3_vvEES3_RKS3_, symObjAddr: 0x4FF0, symBinAddr: 0x100007188, symSize: 0x10 }
  - { offsetInCU: 0x1550B, offset: 0x1550B, size: 0x8, addend: 0x0, symName: __ZNKSt3__16vectorI7ProcessNS_9allocatorIS1_EEE7__allocB7v160006Ev, symObjAddr: 0x5000, symBinAddr: 0x100007198, symSize: 0x28 }
  - { offsetInCU: 0x15537, offset: 0x15537, size: 0x8, addend: 0x0, symName: __ZNSt3__117__compressed_pairIP7ProcessNS_9allocatorIS1_EEEC1B7v160006IDnS4_EEOT_OT0_, symObjAddr: 0x5028, symBinAddr: 0x1000071C0, symSize: 0x3C }
  - { offsetInCU: 0x1558F, offset: 0x1558F, size: 0x8, addend: 0x0, symName: __ZNSt3__16vectorI7ProcessNS_9allocatorIS1_EEE16__destroy_vectorC1ERS4_, symObjAddr: 0x50A4, symBinAddr: 0x10000723C, symSize: 0x34 }
  - { offsetInCU: 0x155C8, offset: 0x155C8, size: 0x8, addend: 0x0, symName: __ZNSt3__16vectorI7ProcessNS_9allocatorIS1_EEE11__vallocateB7v160006Em, symObjAddr: 0x50E8, symBinAddr: 0x100007280, symSize: 0xB4 }
  - { offsetInCU: 0x1560C, offset: 0x1560C, size: 0x8, addend: 0x0, symName: __ZNSt3__16vectorI7ProcessNS_9allocatorIS1_EEE18__construct_at_endIPS1_Li0EEEvT_S7_m, symObjAddr: 0x519C, symBinAddr: 0x100007334, symSize: 0x94 }
  - { offsetInCU: 0x1567F, offset: 0x1567F, size: 0x8, addend: 0x0, symName: __ZNSt3__128__exception_guard_exceptionsINS_6vectorI7ProcessNS_9allocatorIS2_EEE16__destroy_vectorEE10__completeB7v160006Ev, symObjAddr: 0x5230, symBinAddr: 0x1000073C8, symSize: 0x1C }
  - { offsetInCU: 0x156A5, offset: 0x156A5, size: 0x8, addend: 0x0, symName: __ZNSt3__128__exception_guard_exceptionsINS_6vectorI7ProcessNS_9allocatorIS2_EEE16__destroy_vectorEED1B7v160006Ev, symObjAddr: 0x524C, symBinAddr: 0x1000073E4, symSize: 0x2C }
  - { offsetInCU: 0x156CF, offset: 0x156CF, size: 0x8, addend: 0x0, symName: __ZNKSt3__117__compressed_pairIP7ProcessNS_9allocatorIS1_EEE6secondB7v160006Ev, symObjAddr: 0x5278, symBinAddr: 0x100007410, symSize: 0x24 }
  - { offsetInCU: 0x156F5, offset: 0x156F5, size: 0x8, addend: 0x0, symName: __ZNKSt3__122__compressed_pair_elemINS_9allocatorI7ProcessEELi1ELb1EE5__getB7v160006Ev, symObjAddr: 0x529C, symBinAddr: 0x100007434, symSize: 0x14 }
  - { offsetInCU: 0x1571B, offset: 0x1571B, size: 0x8, addend: 0x0, symName: __ZNSt3__117__compressed_pairIP7ProcessNS_9allocatorIS1_EEEC2B7v160006IDnS4_EEOT_OT0_, symObjAddr: 0x52B0, symBinAddr: 0x100007448, symSize: 0x44 }
  - { offsetInCU: 0x15773, offset: 0x15773, size: 0x8, addend: 0x0, symName: __ZNSt3__122__compressed_pair_elemIP7ProcessLi0ELb0EEC2B7v160006IDnvEEOT_, symObjAddr: 0x52F4, symBinAddr: 0x10000748C, symSize: 0x1C }
  - { offsetInCU: 0x157B5, offset: 0x157B5, size: 0x8, addend: 0x0, symName: __ZNSt3__122__compressed_pair_elemINS_9allocatorI7ProcessEELi1ELb1EEC2B7v160006IS3_vEEOT_, symObjAddr: 0x5310, symBinAddr: 0x1000074A8, symSize: 0x18 }
  - { offsetInCU: 0x157F7, offset: 0x157F7, size: 0x8, addend: 0x0, symName: __ZNSt3__128__exception_guard_exceptionsINS_6vectorI7ProcessNS_9allocatorIS2_EEE16__destroy_vectorEEC1B7v160006ES6_, symObjAddr: 0x5328, symBinAddr: 0x1000074C0, symSize: 0x34 }
  - { offsetInCU: 0x1582F, offset: 0x1582F, size: 0x8, addend: 0x0, symName: __ZNSt3__128__exception_guard_exceptionsINS_6vectorI7ProcessNS_9allocatorIS2_EEE16__destroy_vectorEEC2B7v160006ES6_, symObjAddr: 0x535C, symBinAddr: 0x1000074F4, symSize: 0x24 }
  - { offsetInCU: 0x15867, offset: 0x15867, size: 0x8, addend: 0x0, symName: __ZNSt3__16vectorI7ProcessNS_9allocatorIS1_EEE16__destroy_vectorC2ERS4_, symObjAddr: 0x5380, symBinAddr: 0x100007518, symSize: 0x20 }
  - { offsetInCU: 0x158A0, offset: 0x158A0, size: 0x8, addend: 0x0, symName: __ZNKSt3__16vectorI7ProcessNS_9allocatorIS1_EEE8max_sizeEv, symObjAddr: 0x53A0, symBinAddr: 0x100007538, symSize: 0x74 }
  - { offsetInCU: 0x158C8, offset: 0x158C8, size: 0x8, addend: 0x0, symName: __ZNKSt3__16vectorI7ProcessNS_9allocatorIS1_EEE20__throw_length_errorB7v160006Ev, symObjAddr: 0x5414, symBinAddr: 0x1000075AC, symSize: 0x1C }
  - { offsetInCU: 0x158EE, offset: 0x158EE, size: 0x8, addend: 0x0, symName: __ZNSt3__16vectorI7ProcessNS_9allocatorIS1_EEE7__allocB7v160006Ev, symObjAddr: 0x5470, symBinAddr: 0x100007608, symSize: 0x28 }
  - { offsetInCU: 0x15914, offset: 0x15914, size: 0x8, addend: 0x0, symName: __ZNSt3__16vectorI7ProcessNS_9allocatorIS1_EEE9__end_capB7v160006Ev, symObjAddr: 0x5498, symBinAddr: 0x100007630, symSize: 0x28 }
  - { offsetInCU: 0x1593A, offset: 0x1593A, size: 0x8, addend: 0x0, symName: __ZNKSt3__16vectorI7ProcessNS_9allocatorIS1_EEE14__annotate_newB7v160006Em, symObjAddr: 0x54C0, symBinAddr: 0x100007658, symSize: 0xC8 }
  - { offsetInCU: 0x1596F, offset: 0x1596F, size: 0x8, addend: 0x0, symName: __ZNSt3__116allocator_traitsINS_9allocatorI7ProcessEEE8max_sizeB7v160006IS3_vEEmRKS3_, symObjAddr: 0x55B4, symBinAddr: 0x10000774C, symSize: 0x24 }
  - { offsetInCU: 0x1599D, offset: 0x1599D, size: 0x8, addend: 0x0, symName: __ZNSt3__114numeric_limitsIlE3maxB7v160006Ev, symObjAddr: 0x55D8, symBinAddr: 0x100007770, symSize: 0x14 }
  - { offsetInCU: 0x159BB, offset: 0x159BB, size: 0x8, addend: 0x0, symName: __ZNKSt3__16__lessImmEclB7v160006ERKmS3_, symObjAddr: 0x5640, symBinAddr: 0x1000077D8, symSize: 0x34 }
  - { offsetInCU: 0x159FD, offset: 0x159FD, size: 0x8, addend: 0x0, symName: __ZNKSt3__19allocatorI7ProcessE8max_sizeB7v160006Ev, symObjAddr: 0x5674, symBinAddr: 0x10000780C, symSize: 0x18 }
  - { offsetInCU: 0x15A23, offset: 0x15A23, size: 0x8, addend: 0x0, symName: __ZNSt3__123__libcpp_numeric_limitsIlLb1EE3maxB7v160006Ev, symObjAddr: 0x568C, symBinAddr: 0x100007824, symSize: 0x8 }
  - { offsetInCU: 0x15A37, offset: 0x15A37, size: 0x8, addend: 0x0, symName: __ZNSt12length_errorC1B7v160006EPKc, symObjAddr: 0x56F8, symBinAddr: 0x100007890, symSize: 0x34 }
  - { offsetInCU: 0x15A6F, offset: 0x15A6F, size: 0x8, addend: 0x0, symName: __ZNSt12length_errorC2B7v160006EPKc, symObjAddr: 0x572C, symBinAddr: 0x1000078C4, symSize: 0x4C }
  - { offsetInCU: 0x15AA7, offset: 0x15AA7, size: 0x8, addend: 0x0, symName: __ZNSt3__19allocatorI7ProcessE8allocateB7v160006Em, symObjAddr: 0x5778, symBinAddr: 0x100007910, symSize: 0x8C }
  - { offsetInCU: 0x15ADB, offset: 0x15ADB, size: 0x8, addend: 0x0, symName: __ZNSt3__117__compressed_pairIP7ProcessNS_9allocatorIS1_EEE6secondB7v160006Ev, symObjAddr: 0x5884, symBinAddr: 0x100007A1C, symSize: 0x24 }
  - { offsetInCU: 0x15B01, offset: 0x15B01, size: 0x8, addend: 0x0, symName: __ZNSt3__117__compressed_pairIP7ProcessNS_9allocatorIS1_EEE5firstB7v160006Ev, symObjAddr: 0x58A8, symBinAddr: 0x100007A40, symSize: 0x24 }
  - { offsetInCU: 0x15B27, offset: 0x15B27, size: 0x8, addend: 0x0, symName: __ZNSt3__122__compressed_pair_elemIP7ProcessLi0ELb0EE5__getB7v160006Ev, symObjAddr: 0x58CC, symBinAddr: 0x100007A64, symSize: 0x14 }
  - { offsetInCU: 0x15B4D, offset: 0x15B4D, size: 0x8, addend: 0x0, symName: __ZNKSt3__16vectorI7ProcessNS_9allocatorIS1_EEE31__annotate_contiguous_containerB7v160006EPKvS6_S6_S6_, symObjAddr: 0x58E0, symBinAddr: 0x100007A78, symSize: 0x20 }
  - { offsetInCU: 0x15B9F, offset: 0x15B9F, size: 0x8, addend: 0x0, symName: __ZNKSt3__16vectorI7ProcessNS_9allocatorIS1_EEE4dataB7v160006Ev, symObjAddr: 0x5900, symBinAddr: 0x100007A98, symSize: 0x28 }
  - { offsetInCU: 0x15BC5, offset: 0x15BC5, size: 0x8, addend: 0x0, symName: __ZNKSt3__16vectorI7ProcessNS_9allocatorIS1_EEE8capacityB7v160006Ev, symObjAddr: 0x5928, symBinAddr: 0x100007AC0, symSize: 0x40 }
  - { offsetInCU: 0x15BEB, offset: 0x15BEB, size: 0x8, addend: 0x0, symName: __ZNKSt3__16vectorI7ProcessNS_9allocatorIS1_EEE9__end_capB7v160006Ev, symObjAddr: 0x597C, symBinAddr: 0x100007B14, symSize: 0x28 }
  - { offsetInCU: 0x15C11, offset: 0x15C11, size: 0x8, addend: 0x0, symName: __ZNKSt3__117__compressed_pairIP7ProcessNS_9allocatorIS1_EEE5firstB7v160006Ev, symObjAddr: 0x59A4, symBinAddr: 0x100007B3C, symSize: 0x24 }
  - { offsetInCU: 0x15C37, offset: 0x15C37, size: 0x8, addend: 0x0, symName: __ZNKSt3__122__compressed_pair_elemIP7ProcessLi0ELb0EE5__getB7v160006Ev, symObjAddr: 0x59C8, symBinAddr: 0x100007B60, symSize: 0x14 }
  - { offsetInCU: 0x15C76, offset: 0x15C76, size: 0x8, addend: 0x0, symName: __ZNSt3__16vectorI7ProcessNS_9allocatorIS1_EEE21_ConstructTransactionC1B7v160006ERS4_m, symObjAddr: 0x59DC, symBinAddr: 0x100007B74, symSize: 0x3C }
  - { offsetInCU: 0x15CBE, offset: 0x15CBE, size: 0x8, addend: 0x0, symName: __ZNSt3__16vectorI7ProcessNS_9allocatorIS1_EEE21_ConstructTransactionD1B7v160006Ev, symObjAddr: 0x5B14, symBinAddr: 0x100007CAC, symSize: 0x2C }
  - { offsetInCU: 0x15CE8, offset: 0x15CE8, size: 0x8, addend: 0x0, symName: __ZNSt3__16vectorI7ProcessNS_9allocatorIS1_EEE21_ConstructTransactionC2B7v160006ERS4_m, symObjAddr: 0x5B40, symBinAddr: 0x100007CD8, symSize: 0x4C }
  - { offsetInCU: 0x15D30, offset: 0x15D30, size: 0x8, addend: 0x0, symName: __ZNSt3__129_AllocatorDestroyRangeReverseINS_9allocatorI7ProcessEEPS2_EC1B7v160006ERS3_RS4_S7_, symObjAddr: 0x5BD8, symBinAddr: 0x100007D70, symSize: 0x44 }
  - { offsetInCU: 0x15D87, offset: 0x15D87, size: 0x8, addend: 0x0, symName: __ZNSt3__116allocator_traitsINS_9allocatorI7ProcessEEE9constructB7v160006IS2_JRS2_EvEEvRS3_PT_DpOT0_, symObjAddr: 0x5C1C, symBinAddr: 0x100007DB4, symSize: 0x34 }
  - { offsetInCU: 0x15DDE, offset: 0x15DDE, size: 0x8, addend: 0x0, symName: __ZNSt3__128__exception_guard_exceptionsINS_29_AllocatorDestroyRangeReverseINS_9allocatorI7ProcessEEPS3_EEE10__completeB7v160006Ev, symObjAddr: 0x5C50, symBinAddr: 0x100007DE8, symSize: 0x1C }
  - { offsetInCU: 0x15E04, offset: 0x15E04, size: 0x8, addend: 0x0, symName: __ZNSt3__128__exception_guard_exceptionsINS_29_AllocatorDestroyRangeReverseINS_9allocatorI7ProcessEEPS3_EEED1B7v160006Ev, symObjAddr: 0x5C6C, symBinAddr: 0x100007E04, symSize: 0x2C }
  - { offsetInCU: 0x15E2E, offset: 0x15E2E, size: 0x8, addend: 0x0, symName: __ZNSt3__128__exception_guard_exceptionsINS_29_AllocatorDestroyRangeReverseINS_9allocatorI7ProcessEEPS3_EEEC1B7v160006ES6_, symObjAddr: 0x5C98, symBinAddr: 0x100007E30, symSize: 0x34 }
  - { offsetInCU: 0x15E67, offset: 0x15E67, size: 0x8, addend: 0x0, symName: __ZNSt3__128__exception_guard_exceptionsINS_29_AllocatorDestroyRangeReverseINS_9allocatorI7ProcessEEPS3_EEEC2B7v160006ES6_, symObjAddr: 0x5CCC, symBinAddr: 0x100007E64, symSize: 0x30 }
  - { offsetInCU: 0x15EA0, offset: 0x15EA0, size: 0x8, addend: 0x0, symName: __ZNSt3__129_AllocatorDestroyRangeReverseINS_9allocatorI7ProcessEEPS2_EC2B7v160006ERS3_RS4_S7_, symObjAddr: 0x5CFC, symBinAddr: 0x100007E94, symSize: 0x38 }
  - { offsetInCU: 0x15EF7, offset: 0x15EF7, size: 0x8, addend: 0x0, symName: __ZNSt3__19allocatorI7ProcessE9constructB7v160006IS1_JRS1_EEEvPT_DpOT0_, symObjAddr: 0x5D34, symBinAddr: 0x100007ECC, symSize: 0x30 }
  - { offsetInCU: 0x15F4D, offset: 0x15F4D, size: 0x8, addend: 0x0, symName: __ZN7ProcessC1ERKS_, symObjAddr: 0x5D64, symBinAddr: 0x100007EFC, symSize: 0x34 }
  - { offsetInCU: 0x15F82, offset: 0x15F82, size: 0x8, addend: 0x0, symName: __ZN7ProcessC2ERKS_, symObjAddr: 0x5D98, symBinAddr: 0x100007F30, symSize: 0x98 }
  - { offsetInCU: 0x15FB7, offset: 0x15FB7, size: 0x8, addend: 0x0, symName: __ZNSt3__16vectorIiNS_9allocatorIiEEEC1ERKS3_, symObjAddr: 0x5E30, symBinAddr: 0x100007FC8, symSize: 0x34 }
  - { offsetInCU: 0x15FF2, offset: 0x15FF2, size: 0x8, addend: 0x0, symName: __ZNSt3__16vectorIiNS_9allocatorIiEEEC2ERKS3_, symObjAddr: 0x5E64, symBinAddr: 0x100007FFC, symSize: 0x118 }
  - { offsetInCU: 0x1605B, offset: 0x1605B, size: 0x8, addend: 0x0, symName: __ZNSt3__116allocator_traitsINS_9allocatorIiEEE37select_on_container_copy_constructionB7v160006IS2_vvEES2_RKS2_, symObjAddr: 0x5F7C, symBinAddr: 0x100008114, symSize: 0x10 }
  - { offsetInCU: 0x1608A, offset: 0x1608A, size: 0x8, addend: 0x0, symName: __ZNKSt3__16vectorIiNS_9allocatorIiEEE7__allocB7v160006Ev, symObjAddr: 0x5F8C, symBinAddr: 0x100008124, symSize: 0x28 }
  - { offsetInCU: 0x160B6, offset: 0x160B6, size: 0x8, addend: 0x0, symName: __ZNSt3__117__compressed_pairIPiNS_9allocatorIiEEEC1B7v160006IDnS3_EEOT_OT0_, symObjAddr: 0x5FB4, symBinAddr: 0x10000814C, symSize: 0x3C }
  - { offsetInCU: 0x1610E, offset: 0x1610E, size: 0x8, addend: 0x0, symName: __ZNSt3__16vectorIiNS_9allocatorIiEEE11__vallocateB7v160006Em, symObjAddr: 0x6030, symBinAddr: 0x1000081C8, symSize: 0xAC }
  - { offsetInCU: 0x16152, offset: 0x16152, size: 0x8, addend: 0x0, symName: __ZNSt3__16vectorIiNS_9allocatorIiEEE18__construct_at_endIPiLi0EEEvT_S6_m, symObjAddr: 0x60DC, symBinAddr: 0x100008274, symSize: 0x94 }
  - { offsetInCU: 0x161C5, offset: 0x161C5, size: 0x8, addend: 0x0, symName: __ZNSt3__128__exception_guard_exceptionsINS_6vectorIiNS_9allocatorIiEEE16__destroy_vectorEE10__completeB7v160006Ev, symObjAddr: 0x6170, symBinAddr: 0x100008308, symSize: 0x1C }
  - { offsetInCU: 0x161EB, offset: 0x161EB, size: 0x8, addend: 0x0, symName: __ZNSt3__128__exception_guard_exceptionsINS_6vectorIiNS_9allocatorIiEEE16__destroy_vectorEED1B7v160006Ev, symObjAddr: 0x618C, symBinAddr: 0x100008324, symSize: 0x2C }
  - { offsetInCU: 0x16215, offset: 0x16215, size: 0x8, addend: 0x0, symName: __ZNKSt3__117__compressed_pairIPiNS_9allocatorIiEEE6secondB7v160006Ev, symObjAddr: 0x61B8, symBinAddr: 0x100008350, symSize: 0x24 }
  - { offsetInCU: 0x1623B, offset: 0x1623B, size: 0x8, addend: 0x0, symName: __ZNKSt3__122__compressed_pair_elemINS_9allocatorIiEELi1ELb1EE5__getB7v160006Ev, symObjAddr: 0x61DC, symBinAddr: 0x100008374, symSize: 0x14 }
  - { offsetInCU: 0x16261, offset: 0x16261, size: 0x8, addend: 0x0, symName: __ZNSt3__117__compressed_pairIPiNS_9allocatorIiEEEC2B7v160006IDnS3_EEOT_OT0_, symObjAddr: 0x61F0, symBinAddr: 0x100008388, symSize: 0x44 }
  - { offsetInCU: 0x162B9, offset: 0x162B9, size: 0x8, addend: 0x0, symName: __ZNSt3__122__compressed_pair_elemINS_9allocatorIiEELi1ELb1EEC2B7v160006IS2_vEEOT_, symObjAddr: 0x6234, symBinAddr: 0x1000083CC, symSize: 0x18 }
  - { offsetInCU: 0x162FB, offset: 0x162FB, size: 0x8, addend: 0x0, symName: __ZNSt3__128__exception_guard_exceptionsINS_6vectorIiNS_9allocatorIiEEE16__destroy_vectorEEC1B7v160006ES5_, symObjAddr: 0x624C, symBinAddr: 0x1000083E4, symSize: 0x34 }
  - { offsetInCU: 0x16333, offset: 0x16333, size: 0x8, addend: 0x0, symName: __ZNSt3__128__exception_guard_exceptionsINS_6vectorIiNS_9allocatorIiEEE16__destroy_vectorEEC2B7v160006ES5_, symObjAddr: 0x6280, symBinAddr: 0x100008418, symSize: 0x24 }
  - { offsetInCU: 0x1636B, offset: 0x1636B, size: 0x8, addend: 0x0, symName: __ZNKSt3__16vectorIiNS_9allocatorIiEEE8max_sizeEv, symObjAddr: 0x62A4, symBinAddr: 0x10000843C, symSize: 0x74 }
  - { offsetInCU: 0x16393, offset: 0x16393, size: 0x8, addend: 0x0, symName: __ZNKSt3__16vectorIiNS_9allocatorIiEEE20__throw_length_errorB7v160006Ev, symObjAddr: 0x6318, symBinAddr: 0x1000084B0, symSize: 0x1C }
  - { offsetInCU: 0x163B9, offset: 0x163B9, size: 0x8, addend: 0x0, symName: __ZNSt3__16vectorIiNS_9allocatorIiEEE9__end_capB7v160006Ev, symObjAddr: 0x6374, symBinAddr: 0x10000850C, symSize: 0x28 }
  - { offsetInCU: 0x163DF, offset: 0x163DF, size: 0x8, addend: 0x0, symName: __ZNKSt3__16vectorIiNS_9allocatorIiEEE14__annotate_newB7v160006Em, symObjAddr: 0x639C, symBinAddr: 0x100008534, symSize: 0xAC }
  - { offsetInCU: 0x16414, offset: 0x16414, size: 0x8, addend: 0x0, symName: __ZNSt3__116allocator_traitsINS_9allocatorIiEEE8max_sizeB7v160006IS2_vEEmRKS2_, symObjAddr: 0x6448, symBinAddr: 0x1000085E0, symSize: 0x24 }
  - { offsetInCU: 0x16442, offset: 0x16442, size: 0x8, addend: 0x0, symName: __ZNKSt3__19allocatorIiE8max_sizeB7v160006Ev, symObjAddr: 0x646C, symBinAddr: 0x100008604, symSize: 0x14 }
  - { offsetInCU: 0x16468, offset: 0x16468, size: 0x8, addend: 0x0, symName: __ZNSt3__19allocatorIiE8allocateB7v160006Em, symObjAddr: 0x6480, symBinAddr: 0x100008618, symSize: 0x84 }
  - { offsetInCU: 0x1649C, offset: 0x1649C, size: 0x8, addend: 0x0, symName: __ZNSt3__117__compressed_pairIPiNS_9allocatorIiEEE5firstB7v160006Ev, symObjAddr: 0x6504, symBinAddr: 0x10000869C, symSize: 0x24 }
  - { offsetInCU: 0x164C2, offset: 0x164C2, size: 0x8, addend: 0x0, symName: __ZNSt3__122__compressed_pair_elemIPiLi0ELb0EE5__getB7v160006Ev, symObjAddr: 0x6528, symBinAddr: 0x1000086C0, symSize: 0x14 }
  - { offsetInCU: 0x16501, offset: 0x16501, size: 0x8, addend: 0x0, symName: __ZNSt3__16vectorIiNS_9allocatorIiEEE21_ConstructTransactionC1B7v160006ERS3_m, symObjAddr: 0x653C, symBinAddr: 0x1000086D4, symSize: 0x3C }
  - { offsetInCU: 0x16549, offset: 0x16549, size: 0x8, addend: 0x0, symName: __ZNSt3__16vectorIiNS_9allocatorIiEEE21_ConstructTransactionD1B7v160006Ev, symObjAddr: 0x6674, symBinAddr: 0x10000880C, symSize: 0x2C }
  - { offsetInCU: 0x16573, offset: 0x16573, size: 0x8, addend: 0x0, symName: __ZNSt3__16vectorIiNS_9allocatorIiEEE21_ConstructTransactionC2B7v160006ERS3_m, symObjAddr: 0x66A0, symBinAddr: 0x100008838, symSize: 0x44 }
  - { offsetInCU: 0x165BB, offset: 0x165BB, size: 0x8, addend: 0x0, symName: __ZNSt3__129_AllocatorDestroyRangeReverseINS_9allocatorIiEEPiEC1B7v160006ERS2_RS3_S6_, symObjAddr: 0x6730, symBinAddr: 0x1000088C8, symSize: 0x44 }
  - { offsetInCU: 0x16612, offset: 0x16612, size: 0x8, addend: 0x0, symName: __ZNSt3__116allocator_traitsINS_9allocatorIiEEE9constructB7v160006IiJRiEvEEvRS2_PT_DpOT0_, symObjAddr: 0x6774, symBinAddr: 0x10000890C, symSize: 0x34 }
  - { offsetInCU: 0x16669, offset: 0x16669, size: 0x8, addend: 0x0, symName: __ZNSt3__128__exception_guard_exceptionsINS_29_AllocatorDestroyRangeReverseINS_9allocatorIiEEPiEEE10__completeB7v160006Ev, symObjAddr: 0x67A8, symBinAddr: 0x100008940, symSize: 0x1C }
  - { offsetInCU: 0x1668F, offset: 0x1668F, size: 0x8, addend: 0x0, symName: __ZNSt3__128__exception_guard_exceptionsINS_29_AllocatorDestroyRangeReverseINS_9allocatorIiEEPiEEED1B7v160006Ev, symObjAddr: 0x67C4, symBinAddr: 0x10000895C, symSize: 0x2C }
  - { offsetInCU: 0x166B9, offset: 0x166B9, size: 0x8, addend: 0x0, symName: __ZNSt3__128__exception_guard_exceptionsINS_29_AllocatorDestroyRangeReverseINS_9allocatorIiEEPiEEEC1B7v160006ES5_, symObjAddr: 0x67F0, symBinAddr: 0x100008988, symSize: 0x34 }
  - { offsetInCU: 0x166F2, offset: 0x166F2, size: 0x8, addend: 0x0, symName: __ZNSt3__128__exception_guard_exceptionsINS_29_AllocatorDestroyRangeReverseINS_9allocatorIiEEPiEEEC2B7v160006ES5_, symObjAddr: 0x6824, symBinAddr: 0x1000089BC, symSize: 0x30 }
  - { offsetInCU: 0x1672B, offset: 0x1672B, size: 0x8, addend: 0x0, symName: __ZNSt3__129_AllocatorDestroyRangeReverseINS_9allocatorIiEEPiEC2B7v160006ERS2_RS3_S6_, symObjAddr: 0x6854, symBinAddr: 0x1000089EC, symSize: 0x38 }
  - { offsetInCU: 0x16782, offset: 0x16782, size: 0x8, addend: 0x0, symName: __ZNSt3__19allocatorIiE9constructB7v160006IiJRiEEEvPT_DpOT0_, symObjAddr: 0x688C, symBinAddr: 0x100008A24, symSize: 0x28 }
  - { offsetInCU: 0x167D8, offset: 0x167D8, size: 0x8, addend: 0x0, symName: __ZNSt3__128__exception_guard_exceptionsINS_29_AllocatorDestroyRangeReverseINS_9allocatorIiEEPiEEED2B7v160006Ev, symObjAddr: 0x68B4, symBinAddr: 0x100008A4C, symSize: 0x48 }
  - { offsetInCU: 0x16802, offset: 0x16802, size: 0x8, addend: 0x0, symName: __ZNKSt3__129_AllocatorDestroyRangeReverseINS_9allocatorIiEEPiEclB7v160006Ev, symObjAddr: 0x68FC, symBinAddr: 0x100008A94, symSize: 0x68 }
  - { offsetInCU: 0x16828, offset: 0x16828, size: 0x8, addend: 0x0, symName: __ZNSt3__116reverse_iteratorIPiEC1B7v160006ES1_, symObjAddr: 0x69D4, symBinAddr: 0x100008B6C, symSize: 0x34 }
  - { offsetInCU: 0x16860, offset: 0x16860, size: 0x8, addend: 0x0, symName: __ZNSt3__116reverse_iteratorIPiEppB7v160006Ev, symObjAddr: 0x6A74, symBinAddr: 0x100008C0C, symSize: 0x20 }
  - { offsetInCU: 0x16886, offset: 0x16886, size: 0x8, addend: 0x0, symName: __ZNKSt3__116reverse_iteratorIPiE4baseB7v160006Ev, symObjAddr: 0x6A94, symBinAddr: 0x100008C2C, symSize: 0x18 }
  - { offsetInCU: 0x168B1, offset: 0x168B1, size: 0x8, addend: 0x0, symName: __ZNSt3__119__to_address_helperINS_16reverse_iteratorIPiEEvE6__callB7v160006ERKS3_, symObjAddr: 0x6AAC, symBinAddr: 0x100008C44, symSize: 0x4C }
  - { offsetInCU: 0x168D4, offset: 0x168D4, size: 0x8, addend: 0x0, symName: __ZNKSt3__116reverse_iteratorIPiEptB7v160006Ev, symObjAddr: 0x6AF8, symBinAddr: 0x100008C90, symSize: 0x24 }
  - { offsetInCU: 0x168FA, offset: 0x168FA, size: 0x8, addend: 0x0, symName: __ZNKSt3__116reverse_iteratorIPiEdeB7v160006Ev, symObjAddr: 0x6B1C, symBinAddr: 0x100008CB4, symSize: 0x28 }
  - { offsetInCU: 0x1692E, offset: 0x1692E, size: 0x8, addend: 0x0, symName: __ZNSt3__116reverse_iteratorIPiEC2B7v160006ES1_, symObjAddr: 0x6B44, symBinAddr: 0x100008CDC, symSize: 0x28 }
  - { offsetInCU: 0x16966, offset: 0x16966, size: 0x8, addend: 0x0, symName: __ZNSt3__16vectorIiNS_9allocatorIiEEE21_ConstructTransactionD2B7v160006Ev, symObjAddr: 0x6B6C, symBinAddr: 0x100008D04, symSize: 0x20 }
  - { offsetInCU: 0x16990, offset: 0x16990, size: 0x8, addend: 0x0, symName: __ZNSt3__128__exception_guard_exceptionsINS_6vectorIiNS_9allocatorIiEEE16__destroy_vectorEED2B7v160006Ev, symObjAddr: 0x6B8C, symBinAddr: 0x100008D24, symSize: 0x48 }
  - { offsetInCU: 0x169BA, offset: 0x169BA, size: 0x8, addend: 0x0, symName: __ZNSt3__128__exception_guard_exceptionsINS_29_AllocatorDestroyRangeReverseINS_9allocatorI7ProcessEEPS3_EEED2B7v160006Ev, symObjAddr: 0x6BD4, symBinAddr: 0x100008D6C, symSize: 0x48 }
  - { offsetInCU: 0x169E4, offset: 0x169E4, size: 0x8, addend: 0x0, symName: __ZNKSt3__129_AllocatorDestroyRangeReverseINS_9allocatorI7ProcessEEPS2_EclB7v160006Ev, symObjAddr: 0x6C1C, symBinAddr: 0x100008DB4, symSize: 0x68 }
  - { offsetInCU: 0x16A0A, offset: 0x16A0A, size: 0x8, addend: 0x0, symName: __ZNSt3__116reverse_iteratorIP7ProcessEC1B7v160006ES2_, symObjAddr: 0x6CF4, symBinAddr: 0x100008E8C, symSize: 0x34 }
  - { offsetInCU: 0x16A42, offset: 0x16A42, size: 0x8, addend: 0x0, symName: __ZNSt3__116reverse_iteratorIP7ProcessEppB7v160006Ev, symObjAddr: 0x6D94, symBinAddr: 0x100008F2C, symSize: 0x20 }
  - { offsetInCU: 0x16A68, offset: 0x16A68, size: 0x8, addend: 0x0, symName: __ZNKSt3__116reverse_iteratorIP7ProcessE4baseB7v160006Ev, symObjAddr: 0x6DB4, symBinAddr: 0x100008F4C, symSize: 0x18 }
  - { offsetInCU: 0x16A93, offset: 0x16A93, size: 0x8, addend: 0x0, symName: __ZNSt3__119__to_address_helperINS_16reverse_iteratorIP7ProcessEEvE6__callB7v160006ERKS4_, symObjAddr: 0x6DCC, symBinAddr: 0x100008F64, symSize: 0x4C }
  - { offsetInCU: 0x16AB6, offset: 0x16AB6, size: 0x8, addend: 0x0, symName: __ZNKSt3__116reverse_iteratorIP7ProcessEptB7v160006Ev, symObjAddr: 0x6E18, symBinAddr: 0x100008FB0, symSize: 0x24 }
  - { offsetInCU: 0x16ADC, offset: 0x16ADC, size: 0x8, addend: 0x0, symName: __ZNKSt3__116reverse_iteratorIP7ProcessEdeB7v160006Ev, symObjAddr: 0x6E3C, symBinAddr: 0x100008FD4, symSize: 0x28 }
  - { offsetInCU: 0x16B10, offset: 0x16B10, size: 0x8, addend: 0x0, symName: __ZNSt3__116reverse_iteratorIP7ProcessEC2B7v160006ES2_, symObjAddr: 0x6E64, symBinAddr: 0x100008FFC, symSize: 0x28 }
  - { offsetInCU: 0x16B48, offset: 0x16B48, size: 0x8, addend: 0x0, symName: __ZNSt3__16vectorI7ProcessNS_9allocatorIS1_EEE21_ConstructTransactionD2B7v160006Ev, symObjAddr: 0x6E8C, symBinAddr: 0x100009024, symSize: 0x20 }
  - { offsetInCU: 0x16B72, offset: 0x16B72, size: 0x8, addend: 0x0, symName: __ZNSt3__128__exception_guard_exceptionsINS_6vectorI7ProcessNS_9allocatorIS2_EEE16__destroy_vectorEED2B7v160006Ev, symObjAddr: 0x6EAC, symBinAddr: 0x100009044, symSize: 0x48 }
  - { offsetInCU: 0x16B9C, offset: 0x16B9C, size: 0x8, addend: 0x0, symName: __ZNSt3__16vectorI7ProcessNS_9allocatorIS1_EEE16__destroy_vectorclB7v160006Ev, symObjAddr: 0x6EF4, symBinAddr: 0x10000908C, symSize: 0x9C }
  - { offsetInCU: 0x16BC2, offset: 0x16BC2, size: 0x8, addend: 0x0, symName: __ZNKSt3__16vectorI7ProcessNS_9allocatorIS1_EEE17__annotate_deleteB7v160006Ev, symObjAddr: 0x6F90, symBinAddr: 0x100009128, symSize: 0xD4 }
  - { offsetInCU: 0x16BE8, offset: 0x16BE8, size: 0x8, addend: 0x0, symName: __ZNSt3__16vectorI7ProcessNS_9allocatorIS1_EEE7__clearB7v160006Ev, symObjAddr: 0x7074, symBinAddr: 0x10000920C, symSize: 0x28 }
  - { offsetInCU: 0x16C0E, offset: 0x16C0E, size: 0x8, addend: 0x0, symName: __ZNSt3__16vectorI7ProcessNS_9allocatorIS1_EEE22__base_destruct_at_endB7v160006EPS1_, symObjAddr: 0x709C, symBinAddr: 0x100009234, symSize: 0xA0 }
  - { offsetInCU: 0x16C52, offset: 0x16C52, size: 0x8, addend: 0x0, symName: __ZNSt3__16vectorI7ProcessNS_9allocatorIS1_EEED2B7v160006Ev, symObjAddr: 0x713C, symBinAddr: 0x1000092D4, symSize: 0x3C }
  - { offsetInCU: 0x16C9A, offset: 0x16C9A, size: 0x8, addend: 0x0, symName: __ZNKSt3__113basic_ostreamIcNS_11char_traitsIcEEE6sentrycvbB7v160006Ev, symObjAddr: 0x736C, symBinAddr: 0x100009504, symSize: 0x1C }
  - { offsetInCU: 0x16CC0, offset: 0x16CC0, size: 0x8, addend: 0x0, symName: __ZNSt3__119ostreambuf_iteratorIcNS_11char_traitsIcEEEC1B7v160006ERNS_13basic_ostreamIcS2_EE, symObjAddr: 0x75D0, symBinAddr: 0x100009768, symSize: 0x34 }
  - { offsetInCU: 0x16CF8, offset: 0x16CF8, size: 0x8, addend: 0x0, symName: __ZNKSt3__18ios_base5flagsB7v160006Ev, symObjAddr: 0x7604, symBinAddr: 0x10000979C, symSize: 0x18 }
  - { offsetInCU: 0x16D20, offset: 0x16D20, size: 0x8, addend: 0x0, symName: __ZNKSt3__19basic_iosIcNS_11char_traitsIcEEE4fillB7v160006Ev, symObjAddr: 0x761C, symBinAddr: 0x1000097B4, symSize: 0x64 }
  - { offsetInCU: 0x16D48, offset: 0x16D48, size: 0x8, addend: 0x0, symName: __ZNKSt3__119ostreambuf_iteratorIcNS_11char_traitsIcEEE6failedB7v160006Ev, symObjAddr: 0x7680, symBinAddr: 0x100009818, symSize: 0x24 }
  - { offsetInCU: 0x16D6E, offset: 0x16D6E, size: 0x8, addend: 0x0, symName: __ZNSt3__19basic_iosIcNS_11char_traitsIcEEE8setstateB7v160006Ej, symObjAddr: 0x76A4, symBinAddr: 0x10000983C, symSize: 0x2C }
  - { offsetInCU: 0x16DA3, offset: 0x16DA3, size: 0x8, addend: 0x0, symName: __ZNKSt3__18ios_base5widthB7v160006Ev, symObjAddr: 0x76D0, symBinAddr: 0x100009868, symSize: 0x18 }
  - { offsetInCU: 0x16DCB, offset: 0x16DCB, size: 0x8, addend: 0x0, symName: __ZNSt3__115basic_streambufIcNS_11char_traitsIcEEE5sputnB7v160006EPKcl, symObjAddr: 0x76E8, symBinAddr: 0x100009880, symSize: 0x3C }
  - { offsetInCU: 0x16E0D, offset: 0x16E0D, size: 0x8, addend: 0x0, symName: __ZNSt3__112basic_stringIcNS_11char_traitsIcEENS_9allocatorIcEEEC1B7v160006Emc, symObjAddr: 0x7724, symBinAddr: 0x1000098BC, symSize: 0x3C }
  - { offsetInCU: 0x16E55, offset: 0x16E55, size: 0x8, addend: 0x0, symName: __ZNKSt3__112basic_stringIcNS_11char_traitsIcEENS_9allocatorIcEEE4dataB7v160006Ev, symObjAddr: 0x7760, symBinAddr: 0x1000098F8, symSize: 0x28 }
  - { offsetInCU: 0x16E7B, offset: 0x16E7B, size: 0x8, addend: 0x0, symName: __ZNSt3__18ios_base5widthB7v160006El, symObjAddr: 0x7788, symBinAddr: 0x100009920, symSize: 0x2C }
  - { offsetInCU: 0x16EC1, offset: 0x16EC1, size: 0x8, addend: 0x0, symName: __ZNSt3__112basic_stringIcNS_11char_traitsIcEENS_9allocatorIcEEEC2B7v160006Emc, symObjAddr: 0x77B4, symBinAddr: 0x10000994C, symSize: 0x54 }
  - { offsetInCU: 0x16F09, offset: 0x16F09, size: 0x8, addend: 0x0, symName: __ZNKSt3__112basic_stringIcNS_11char_traitsIcEENS_9allocatorIcEEE13__get_pointerB7v160006Ev, symObjAddr: 0x781C, symBinAddr: 0x1000099B4, symSize: 0x54 }
  - { offsetInCU: 0x16F2F, offset: 0x16F2F, size: 0x8, addend: 0x0, symName: __ZNKSt3__112basic_stringIcNS_11char_traitsIcEENS_9allocatorIcEEE9__is_longB7v160006Ev, symObjAddr: 0x7870, symBinAddr: 0x100009A08, symSize: 0x74 }
  - { offsetInCU: 0x16F55, offset: 0x16F55, size: 0x8, addend: 0x0, symName: __ZNKSt3__112basic_stringIcNS_11char_traitsIcEENS_9allocatorIcEEE18__get_long_pointerB7v160006Ev, symObjAddr: 0x78E4, symBinAddr: 0x100009A7C, symSize: 0x28 }
  - { offsetInCU: 0x16F7B, offset: 0x16F7B, size: 0x8, addend: 0x0, symName: __ZNKSt3__112basic_stringIcNS_11char_traitsIcEENS_9allocatorIcEEE19__get_short_pointerB7v160006Ev, symObjAddr: 0x790C, symBinAddr: 0x100009AA4, symSize: 0x28 }
  - { offsetInCU: 0x16FA1, offset: 0x16FA1, size: 0x8, addend: 0x0, symName: __ZNKSt3__117__compressed_pairINS_12basic_stringIcNS_11char_traitsIcEENS_9allocatorIcEEE5__repES5_E5firstB7v160006Ev, symObjAddr: 0x7934, symBinAddr: 0x100009ACC, symSize: 0x24 }
  - { offsetInCU: 0x16FC7, offset: 0x16FC7, size: 0x8, addend: 0x0, symName: __ZNKSt3__122__compressed_pair_elemINS_12basic_stringIcNS_11char_traitsIcEENS_9allocatorIcEEE5__repELi0ELb0EE5__getB7v160006Ev, symObjAddr: 0x7958, symBinAddr: 0x100009AF0, symSize: 0x14 }
  - { offsetInCU: 0x16FED, offset: 0x16FED, size: 0x8, addend: 0x0, symName: __ZNSt3__114pointer_traitsIPKcE10pointer_toB7v160006ERS1_, symObjAddr: 0x796C, symBinAddr: 0x100009B04, symSize: 0x14 }
  - { offsetInCU: 0x17010, offset: 0x17010, size: 0x8, addend: 0x0, symName: __ZNSt3__119ostreambuf_iteratorIcNS_11char_traitsIcEEEC2B7v160006ERNS_13basic_ostreamIcS2_EE, symObjAddr: 0x7980, symBinAddr: 0x100009B18, symSize: 0x68 }
  - { offsetInCU: 0x17048, offset: 0x17048, size: 0x8, addend: 0x0, symName: __ZNKSt3__19basic_iosIcNS_11char_traitsIcEEE5rdbufB7v160006Ev, symObjAddr: 0x79E8, symBinAddr: 0x100009B80, symSize: 0x24 }
  - { offsetInCU: 0x17070, offset: 0x17070, size: 0x8, addend: 0x0, symName: __ZNKSt3__18ios_base5rdbufB7v160006Ev, symObjAddr: 0x7A0C, symBinAddr: 0x100009BA4, symSize: 0x18 }
  - { offsetInCU: 0x17096, offset: 0x17096, size: 0x8, addend: 0x0, symName: __ZNSt3__111char_traitsIcE11eq_int_typeEii, symObjAddr: 0x7A24, symBinAddr: 0x100009BBC, symSize: 0x28 }
  - { offsetInCU: 0x170C7, offset: 0x170C7, size: 0x8, addend: 0x0, symName: __ZNSt3__111char_traitsIcE3eofEv, symObjAddr: 0x7A4C, symBinAddr: 0x100009BE4, symSize: 0x8 }
  - { offsetInCU: 0x170DB, offset: 0x170DB, size: 0x8, addend: 0x0, symName: __ZNKSt3__19basic_iosIcNS_11char_traitsIcEEE5widenB7v160006Ec, symObjAddr: 0x7A54, symBinAddr: 0x100009BEC, symSize: 0x8C }
  - { offsetInCU: 0x17149, offset: 0x17149, size: 0x8, addend: 0x0, symName: __ZNKSt3__15ctypeIcE5widenB7v160006Ec, symObjAddr: 0x7B0C, symBinAddr: 0x100009CA4, symSize: 0x38 }
  - { offsetInCU: 0x1717E, offset: 0x1717E, size: 0x8, addend: 0x0, symName: __ZNSt3__18ios_base8setstateB7v160006Ej, symObjAddr: 0x7B44, symBinAddr: 0x100009CDC, symSize: 0x34 }
  - { offsetInCU: 0x171B5, offset: 0x171B5, size: 0x8, addend: 0x0, symName: __ZNKSt3__112basic_stringIcNS_11char_traitsIcEENS_9allocatorIcEEE4sizeB7v160006Ev, symObjAddr: 0x7B78, symBinAddr: 0x100009D10, symSize: 0x54 }
  - { offsetInCU: 0x171DB, offset: 0x171DB, size: 0x8, addend: 0x0, symName: __ZNKSt3__112basic_stringIcNS_11char_traitsIcEENS_9allocatorIcEEE15__get_long_sizeB7v160006Ev, symObjAddr: 0x7BCC, symBinAddr: 0x100009D64, symSize: 0x28 }
  - { offsetInCU: 0x17201, offset: 0x17201, size: 0x8, addend: 0x0, symName: __ZNKSt3__112basic_stringIcNS_11char_traitsIcEENS_9allocatorIcEEE16__get_short_sizeB7v160006Ev, symObjAddr: 0x7BF4, symBinAddr: 0x100009D8C, symSize: 0x34 }
  - { offsetInCU: 0x17227, offset: 0x17227, size: 0x8, addend: 0x0, symName: __ZNSt3__16vectorI7ProcessNS_9allocatorIS1_EEEC2B7v160006Ev, symObjAddr: 0x7C28, symBinAddr: 0x100009DC0, symSize: 0x4C }
  - { offsetInCU: 0x17251, offset: 0x17251, size: 0x8, addend: 0x0, symName: __ZNSt3__117__compressed_pairIP7ProcessNS_9allocatorIS1_EEEC1B7v160006IDnNS_18__default_init_tagEEEOT_OT0_, symObjAddr: 0x7C74, symBinAddr: 0x100009E0C, symSize: 0x3C }
  - { offsetInCU: 0x172A9, offset: 0x172A9, size: 0x8, addend: 0x0, symName: __ZNSt3__117__compressed_pairIP7ProcessNS_9allocatorIS1_EEEC2B7v160006IDnNS_18__default_init_tagEEEOT_OT0_, symObjAddr: 0x7CB0, symBinAddr: 0x100009E48, symSize: 0x40 }
  - { offsetInCU: 0x17301, offset: 0x17301, size: 0x8, addend: 0x0, symName: __ZNSt3__16vectorIiNS_9allocatorIiEEE22__construct_one_at_endB7v160006IJRKiEEEvDpOT_, symObjAddr: 0x7CF0, symBinAddr: 0x100009E88, symSize: 0x98 }
  - { offsetInCU: 0x17350, offset: 0x17350, size: 0x8, addend: 0x0, symName: __ZNSt3__16vectorIiNS_9allocatorIiEEE21__push_back_slow_pathIRKiEEvOT_, symObjAddr: 0x7D88, symBinAddr: 0x100009F20, symSize: 0xE0 }
  - { offsetInCU: 0x173AE, offset: 0x173AE, size: 0x8, addend: 0x0, symName: __ZNSt3__116allocator_traitsINS_9allocatorIiEEE9constructB7v160006IiJRKiEvEEvRS2_PT_DpOT0_, symObjAddr: 0x7E68, symBinAddr: 0x10000A000, symSize: 0x34 }
  - { offsetInCU: 0x17405, offset: 0x17405, size: 0x8, addend: 0x0, symName: __ZNSt3__19allocatorIiE9constructB7v160006IiJRKiEEEvPT_DpOT0_, symObjAddr: 0x7E9C, symBinAddr: 0x10000A034, symSize: 0x28 }
  - { offsetInCU: 0x1745B, offset: 0x1745B, size: 0x8, addend: 0x0, symName: __ZNKSt3__16vectorIiNS_9allocatorIiEEE11__recommendB7v160006Em, symObjAddr: 0x7EC4, symBinAddr: 0x10000A05C, symSize: 0xB4 }
  - { offsetInCU: 0x174B0, offset: 0x174B0, size: 0x8, addend: 0x0, symName: __ZNSt3__114__split_bufferIiRNS_9allocatorIiEEEC1EmmS3_, symObjAddr: 0x7F78, symBinAddr: 0x10000A110, symSize: 0x44 }
  - { offsetInCU: 0x17506, offset: 0x17506, size: 0x8, addend: 0x0, symName: __ZNSt3__114__split_bufferIiRNS_9allocatorIiEEED1Ev, symObjAddr: 0x80D4, symBinAddr: 0x10000A26C, symSize: 0x2C }
  - { offsetInCU: 0x17532, offset: 0x17532, size: 0x8, addend: 0x0, symName: __ZNSt3__114__split_bufferIiRNS_9allocatorIiEEEC2EmmS3_, symObjAddr: 0x8180, symBinAddr: 0x10000A318, symSize: 0xD4 }
  - { offsetInCU: 0x175A6, offset: 0x175A6, size: 0x8, addend: 0x0, symName: __ZNSt3__117__compressed_pairIPiRNS_9allocatorIiEEEC1B7v160006IDnS4_EEOT_OT0_, symObjAddr: 0x8254, symBinAddr: 0x10000A3EC, symSize: 0x3C }
  - { offsetInCU: 0x175FE, offset: 0x175FE, size: 0x8, addend: 0x0, symName: __ZNSt3__114__split_bufferIiRNS_9allocatorIiEEE7__allocB7v160006Ev, symObjAddr: 0x8290, symBinAddr: 0x10000A428, symSize: 0x28 }
  - { offsetInCU: 0x17624, offset: 0x17624, size: 0x8, addend: 0x0, symName: __ZNSt3__114__split_bufferIiRNS_9allocatorIiEEE9__end_capB7v160006Ev, symObjAddr: 0x82B8, symBinAddr: 0x10000A450, symSize: 0x28 }
  - { offsetInCU: 0x1764A, offset: 0x1764A, size: 0x8, addend: 0x0, symName: __ZNSt3__117__compressed_pairIPiRNS_9allocatorIiEEEC2B7v160006IDnS4_EEOT_OT0_, symObjAddr: 0x82E0, symBinAddr: 0x10000A478, symSize: 0x48 }
  - { offsetInCU: 0x176A2, offset: 0x176A2, size: 0x8, addend: 0x0, symName: __ZNSt3__122__compressed_pair_elemIRNS_9allocatorIiEELi1ELb0EEC2B7v160006IS3_vEEOT_, symObjAddr: 0x8328, symBinAddr: 0x10000A4C0, symSize: 0x20 }
  - { offsetInCU: 0x176E4, offset: 0x176E4, size: 0x8, addend: 0x0, symName: __ZNSt3__117__compressed_pairIPiRNS_9allocatorIiEEE6secondB7v160006Ev, symObjAddr: 0x8348, symBinAddr: 0x10000A4E0, symSize: 0x28 }
  - { offsetInCU: 0x1770A, offset: 0x1770A, size: 0x8, addend: 0x0, symName: __ZNSt3__122__compressed_pair_elemIRNS_9allocatorIiEELi1ELb0EE5__getB7v160006Ev, symObjAddr: 0x8370, symBinAddr: 0x10000A508, symSize: 0x18 }
  - { offsetInCU: 0x17730, offset: 0x17730, size: 0x8, addend: 0x0, symName: __ZNSt3__117__compressed_pairIPiRNS_9allocatorIiEEE5firstB7v160006Ev, symObjAddr: 0x8388, symBinAddr: 0x10000A520, symSize: 0x24 }
  - { offsetInCU: 0x1777A, offset: 0x1777A, size: 0x8, addend: 0x0, symName: __ZNKSt3__111__move_loopINS_17_ClassicAlgPolicyEEclB7v160006INS_16reverse_iteratorIPiEES6_S6_EENS_4pairIT_T1_EES8_T0_S9_, symObjAddr: 0x8814, symBinAddr: 0x10000A9AC, symSize: 0xA0 }
  - { offsetInCU: 0x177E5, offset: 0x177E5, size: 0x8, addend: 0x0, symName: __ZNSt3__18_IterOpsINS_17_ClassicAlgPolicyEE11__iter_moveB7v160006IRNS_16reverse_iteratorIPiEEEENS_9enable_ifIXsr12is_referenceIDTdeclsr3stdE7declvalIRT_EEEEE5valueEDTclsr3stdE4movedeclsr3stdE7declvalISA_EEEEE4typeEOS9_, symObjAddr: 0x8A14, symBinAddr: 0x10000ABAC, symSize: 0x28 }
  - { offsetInCU: 0x17811, offset: 0x17811, size: 0x8, addend: 0x0, symName: __ZNSt3__18_IterOpsINS_17_ClassicAlgPolicyEE25__validate_iter_referenceB7v160006IRNS_16reverse_iteratorIPiEEEEvv, symObjAddr: 0x8A3C, symBinAddr: 0x10000ABD4, symSize: 0x4 }
  - { offsetInCU: 0x1782F, offset: 0x1782F, size: 0x8, addend: 0x0, symName: __ZNSt3__118__unwrap_iter_implINS_16reverse_iteratorIPiEELb0EE8__unwrapB7v160006ES3_, symObjAddr: 0x8A40, symBinAddr: 0x10000ABD8, symSize: 0x24 }
  - { offsetInCU: 0x17852, offset: 0x17852, size: 0x8, addend: 0x0, symName: __ZNSt3__14pairINS_16reverse_iteratorIPiEES3_EC1B7v160006ERKS3_S6_, symObjAddr: 0x8A64, symBinAddr: 0x10000ABFC, symSize: 0x3C }
  - { offsetInCU: 0x17898, offset: 0x17898, size: 0x8, addend: 0x0, symName: __ZNSt3__14pairINS_16reverse_iteratorIPiEES3_EC2B7v160006ERKS3_S6_, symObjAddr: 0x8AA0, symBinAddr: 0x10000AC38, symSize: 0x34 }
  - { offsetInCU: 0x178DE, offset: 0x178DE, size: 0x8, addend: 0x0, symName: __ZNSt3__118__unwrap_iter_implINS_16reverse_iteratorIPiEELb0EE8__rewrapB7v160006ES3_S3_, symObjAddr: 0x8AD4, symBinAddr: 0x10000AC6C, symSize: 0x2C }
  - { offsetInCU: 0x1790C, offset: 0x1790C, size: 0x8, addend: 0x0, symName: __ZNSt3__114__split_bufferIiRNS_9allocatorIiEEED2Ev, symObjAddr: 0x8B00, symBinAddr: 0x10000AC98, symSize: 0x80 }
  - { offsetInCU: 0x17938, offset: 0x17938, size: 0x8, addend: 0x0, symName: __ZNSt3__114__split_bufferIiRNS_9allocatorIiEEE5clearB7v160006Ev, symObjAddr: 0x8B80, symBinAddr: 0x10000AD18, symSize: 0x28 }
  - { offsetInCU: 0x1795E, offset: 0x1795E, size: 0x8, addend: 0x0, symName: __ZNKSt3__114__split_bufferIiRNS_9allocatorIiEEE8capacityB7v160006Ev, symObjAddr: 0x8BA8, symBinAddr: 0x10000AD40, symSize: 0x40 }
  - { offsetInCU: 0x17984, offset: 0x17984, size: 0x8, addend: 0x0, symName: __ZNSt3__114__split_bufferIiRNS_9allocatorIiEEE17__destruct_at_endB7v160006EPi, symObjAddr: 0x8BE8, symBinAddr: 0x10000AD80, symSize: 0x2C }
  - { offsetInCU: 0x179B8, offset: 0x179B8, size: 0x8, addend: 0x0, symName: __ZNSt3__114__split_bufferIiRNS_9allocatorIiEEE17__destruct_at_endB7v160006EPiNS_17integral_constantIbLb0EEE, symObjAddr: 0x8C14, symBinAddr: 0x10000ADAC, symSize: 0x94 }
  - { offsetInCU: 0x179F9, offset: 0x179F9, size: 0x8, addend: 0x0, symName: __ZNKSt3__114__split_bufferIiRNS_9allocatorIiEEE9__end_capB7v160006Ev, symObjAddr: 0x8CA8, symBinAddr: 0x10000AE40, symSize: 0x28 }
  - { offsetInCU: 0x17A1F, offset: 0x17A1F, size: 0x8, addend: 0x0, symName: __ZNKSt3__117__compressed_pairIPiRNS_9allocatorIiEEE5firstB7v160006Ev, symObjAddr: 0x8CD0, symBinAddr: 0x10000AE68, symSize: 0x24 }
  - { offsetInCU: 0x17A45, offset: 0x17A45, size: 0x8, addend: 0x0, symName: __ZNSt3__16vectorI7ProcessNS_9allocatorIS1_EEE22__construct_one_at_endB7v160006IJRKS1_EEEvDpOT_, symObjAddr: 0x8CF4, symBinAddr: 0x10000AE8C, symSize: 0x98 }
  - { offsetInCU: 0x17A94, offset: 0x17A94, size: 0x8, addend: 0x0, symName: __ZNSt3__16vectorI7ProcessNS_9allocatorIS1_EEE21__push_back_slow_pathIRKS1_EEvOT_, symObjAddr: 0x8D8C, symBinAddr: 0x10000AF24, symSize: 0xE0 }
  - { offsetInCU: 0x17AF2, offset: 0x17AF2, size: 0x8, addend: 0x0, symName: __ZNSt3__116allocator_traitsINS_9allocatorI7ProcessEEE9constructB7v160006IS2_JRKS2_EvEEvRS3_PT_DpOT0_, symObjAddr: 0x8E6C, symBinAddr: 0x10000B004, symSize: 0x34 }
  - { offsetInCU: 0x17B49, offset: 0x17B49, size: 0x8, addend: 0x0, symName: __ZNSt3__19allocatorI7ProcessE9constructB7v160006IS1_JRKS1_EEEvPT_DpOT0_, symObjAddr: 0x8EA0, symBinAddr: 0x10000B038, symSize: 0x30 }
  - { offsetInCU: 0x17B9F, offset: 0x17B9F, size: 0x8, addend: 0x0, symName: __ZNKSt3__16vectorI7ProcessNS_9allocatorIS1_EEE11__recommendB7v160006Em, symObjAddr: 0x8ED0, symBinAddr: 0x10000B068, symSize: 0xB4 }
  - { offsetInCU: 0x17BF4, offset: 0x17BF4, size: 0x8, addend: 0x0, symName: __ZNSt3__114__split_bufferI7ProcessRNS_9allocatorIS1_EEEC1EmmS4_, symObjAddr: 0x8F84, symBinAddr: 0x10000B11C, symSize: 0x44 }
  - { offsetInCU: 0x17C4A, offset: 0x17C4A, size: 0x8, addend: 0x0, symName: __ZNSt3__114__split_bufferI7ProcessRNS_9allocatorIS1_EEED1Ev, symObjAddr: 0x90E0, symBinAddr: 0x10000B278, symSize: 0x2C }
  - { offsetInCU: 0x17C76, offset: 0x17C76, size: 0x8, addend: 0x0, symName: __ZNSt3__114__split_bufferI7ProcessRNS_9allocatorIS1_EEEC2EmmS4_, symObjAddr: 0x910C, symBinAddr: 0x10000B2A4, symSize: 0xE0 }
  - { offsetInCU: 0x17CEA, offset: 0x17CEA, size: 0x8, addend: 0x0, symName: __ZNSt3__117__compressed_pairIP7ProcessRNS_9allocatorIS1_EEEC1B7v160006IDnS5_EEOT_OT0_, symObjAddr: 0x91EC, symBinAddr: 0x10000B384, symSize: 0x3C }
  - { offsetInCU: 0x17D42, offset: 0x17D42, size: 0x8, addend: 0x0, symName: __ZNSt3__114__split_bufferI7ProcessRNS_9allocatorIS1_EEE7__allocB7v160006Ev, symObjAddr: 0x9228, symBinAddr: 0x10000B3C0, symSize: 0x28 }
  - { offsetInCU: 0x17D68, offset: 0x17D68, size: 0x8, addend: 0x0, symName: __ZNSt3__114__split_bufferI7ProcessRNS_9allocatorIS1_EEE9__end_capB7v160006Ev, symObjAddr: 0x9250, symBinAddr: 0x10000B3E8, symSize: 0x28 }
  - { offsetInCU: 0x17D8E, offset: 0x17D8E, size: 0x8, addend: 0x0, symName: __ZNSt3__117__compressed_pairIP7ProcessRNS_9allocatorIS1_EEEC2B7v160006IDnS5_EEOT_OT0_, symObjAddr: 0x9278, symBinAddr: 0x10000B410, symSize: 0x48 }
  - { offsetInCU: 0x17DE6, offset: 0x17DE6, size: 0x8, addend: 0x0, symName: __ZNSt3__122__compressed_pair_elemIRNS_9allocatorI7ProcessEELi1ELb0EEC2B7v160006IS4_vEEOT_, symObjAddr: 0x92C0, symBinAddr: 0x10000B458, symSize: 0x20 }
  - { offsetInCU: 0x17E28, offset: 0x17E28, size: 0x8, addend: 0x0, symName: __ZNSt3__117__compressed_pairIP7ProcessRNS_9allocatorIS1_EEE6secondB7v160006Ev, symObjAddr: 0x92E0, symBinAddr: 0x10000B478, symSize: 0x28 }
  - { offsetInCU: 0x17E4E, offset: 0x17E4E, size: 0x8, addend: 0x0, symName: __ZNSt3__122__compressed_pair_elemIRNS_9allocatorI7ProcessEELi1ELb0EE5__getB7v160006Ev, symObjAddr: 0x9308, symBinAddr: 0x10000B4A0, symSize: 0x18 }
  - { offsetInCU: 0x17E74, offset: 0x17E74, size: 0x8, addend: 0x0, symName: __ZNSt3__117__compressed_pairIP7ProcessRNS_9allocatorIS1_EEE5firstB7v160006Ev, symObjAddr: 0x9320, symBinAddr: 0x10000B4B8, symSize: 0x24 }
  - { offsetInCU: 0x17E9A, offset: 0x17E9A, size: 0x8, addend: 0x0, symName: __ZNSt3__129_AllocatorDestroyRangeReverseINS_9allocatorI7ProcessEENS_16reverse_iteratorIPS2_EEEC1B7v160006ERS3_RS6_S9_, symObjAddr: 0x9500, symBinAddr: 0x10000B698, symSize: 0x44 }
  - { offsetInCU: 0x17EF1, offset: 0x17EF1, size: 0x8, addend: 0x0, symName: __ZNSt3__128__exception_guard_exceptionsINS_29_AllocatorDestroyRangeReverseINS_9allocatorI7ProcessEENS_16reverse_iteratorIPS3_EEEEE10__completeB7v160006Ev, symObjAddr: 0x9544, symBinAddr: 0x10000B6DC, symSize: 0x1C }
  - { offsetInCU: 0x17F17, offset: 0x17F17, size: 0x8, addend: 0x0, symName: __ZNSt3__128__exception_guard_exceptionsINS_29_AllocatorDestroyRangeReverseINS_9allocatorI7ProcessEENS_16reverse_iteratorIPS3_EEEEED1B7v160006Ev, symObjAddr: 0x9560, symBinAddr: 0x10000B6F8, symSize: 0x2C }
  - { offsetInCU: 0x17F41, offset: 0x17F41, size: 0x8, addend: 0x0, symName: __ZNSt3__128__exception_guard_exceptionsINS_29_AllocatorDestroyRangeReverseINS_9allocatorI7ProcessEENS_16reverse_iteratorIPS3_EEEEEC1B7v160006ES8_, symObjAddr: 0x958C, symBinAddr: 0x10000B724, symSize: 0x34 }
  - { offsetInCU: 0x17F7A, offset: 0x17F7A, size: 0x8, addend: 0x0, symName: __ZNSt3__128__exception_guard_exceptionsINS_29_AllocatorDestroyRangeReverseINS_9allocatorI7ProcessEENS_16reverse_iteratorIPS3_EEEEEC2B7v160006ES8_, symObjAddr: 0x95C0, symBinAddr: 0x10000B758, symSize: 0x30 }
  - { offsetInCU: 0x17FB3, offset: 0x17FB3, size: 0x8, addend: 0x0, symName: __ZNSt3__129_AllocatorDestroyRangeReverseINS_9allocatorI7ProcessEENS_16reverse_iteratorIPS2_EEEC2B7v160006ERS3_RS6_S9_, symObjAddr: 0x95F0, symBinAddr: 0x10000B788, symSize: 0x38 }
  - { offsetInCU: 0x1800A, offset: 0x1800A, size: 0x8, addend: 0x0, symName: __ZNSt3__128__exception_guard_exceptionsINS_29_AllocatorDestroyRangeReverseINS_9allocatorI7ProcessEENS_16reverse_iteratorIPS3_EEEEED2B7v160006Ev, symObjAddr: 0x9628, symBinAddr: 0x10000B7C0, symSize: 0x48 }
  - { offsetInCU: 0x18034, offset: 0x18034, size: 0x8, addend: 0x0, symName: __ZNKSt3__129_AllocatorDestroyRangeReverseINS_9allocatorI7ProcessEENS_16reverse_iteratorIPS2_EEEclB7v160006Ev, symObjAddr: 0x9670, symBinAddr: 0x10000B808, symSize: 0xB4 }
  - { offsetInCU: 0x1805B, offset: 0x1805B, size: 0x8, addend: 0x0, symName: __ZNSt3__116reverse_iteratorINS0_IP7ProcessEEEC1B7v160006ES3_, symObjAddr: 0x9794, symBinAddr: 0x10000B92C, symSize: 0x3C }
  - { offsetInCU: 0x18093, offset: 0x18093, size: 0x8, addend: 0x0, symName: __ZNSt3__116reverse_iteratorINS0_IP7ProcessEEEppB7v160006Ev, symObjAddr: 0x9854, symBinAddr: 0x10000B9EC, symSize: 0x30 }
  - { offsetInCU: 0x180B9, offset: 0x180B9, size: 0x8, addend: 0x0, symName: __ZNKSt3__116reverse_iteratorINS0_IP7ProcessEEE4baseB7v160006Ev, symObjAddr: 0x9884, symBinAddr: 0x10000BA1C, symSize: 0x24 }
  - { offsetInCU: 0x180E4, offset: 0x180E4, size: 0x8, addend: 0x0, symName: __ZNSt3__119__to_address_helperINS_16reverse_iteratorINS1_IP7ProcessEEEEvE6__callB7v160006ERKS5_, symObjAddr: 0x98A8, symBinAddr: 0x10000BA40, symSize: 0x4C }
  - { offsetInCU: 0x18107, offset: 0x18107, size: 0x8, addend: 0x0, symName: __ZNKSt3__116reverse_iteratorINS0_IP7ProcessEEEptB7v160006Ev, symObjAddr: 0x98F4, symBinAddr: 0x10000BA8C, symSize: 0x24 }
  - { offsetInCU: 0x1812D, offset: 0x1812D, size: 0x8, addend: 0x0, symName: __ZNKSt3__116reverse_iteratorINS0_IP7ProcessEEEdeB7v160006Ev, symObjAddr: 0x9918, symBinAddr: 0x10000BAB0, symSize: 0x34 }
  - { offsetInCU: 0x18161, offset: 0x18161, size: 0x8, addend: 0x0, symName: __ZNSt3__116reverse_iteratorIP7ProcessEmmB7v160006Ev, symObjAddr: 0x994C, symBinAddr: 0x10000BAE4, symSize: 0x20 }
  - { offsetInCU: 0x18187, offset: 0x18187, size: 0x8, addend: 0x0, symName: __ZNSt3__116reverse_iteratorINS0_IP7ProcessEEEC2B7v160006ES3_, symObjAddr: 0x996C, symBinAddr: 0x10000BB04, symSize: 0x2C }
  - { offsetInCU: 0x181BF, offset: 0x181BF, size: 0x8, addend: 0x0, symName: __ZNSt3__114__split_bufferI7ProcessRNS_9allocatorIS1_EEED2Ev, symObjAddr: 0x9998, symBinAddr: 0x10000BB30, symSize: 0x80 }
  - { offsetInCU: 0x181EB, offset: 0x181EB, size: 0x8, addend: 0x0, symName: __ZNSt3__114__split_bufferI7ProcessRNS_9allocatorIS1_EEE5clearB7v160006Ev, symObjAddr: 0x9A18, symBinAddr: 0x10000BBB0, symSize: 0x28 }
  - { offsetInCU: 0x18211, offset: 0x18211, size: 0x8, addend: 0x0, symName: __ZNKSt3__114__split_bufferI7ProcessRNS_9allocatorIS1_EEE8capacityB7v160006Ev, symObjAddr: 0x9A40, symBinAddr: 0x10000BBD8, symSize: 0x40 }
  - { offsetInCU: 0x18237, offset: 0x18237, size: 0x8, addend: 0x0, symName: __ZNSt3__114__split_bufferI7ProcessRNS_9allocatorIS1_EEE17__destruct_at_endB7v160006EPS1_, symObjAddr: 0x9A80, symBinAddr: 0x10000BC18, symSize: 0x2C }
  - { offsetInCU: 0x1826B, offset: 0x1826B, size: 0x8, addend: 0x0, symName: __ZNSt3__114__split_bufferI7ProcessRNS_9allocatorIS1_EEE17__destruct_at_endB7v160006EPS1_NS_17integral_constantIbLb0EEE, symObjAddr: 0x9AAC, symBinAddr: 0x10000BC44, symSize: 0x94 }
  - { offsetInCU: 0x182AC, offset: 0x182AC, size: 0x8, addend: 0x0, symName: __ZNKSt3__114__split_bufferI7ProcessRNS_9allocatorIS1_EEE9__end_capB7v160006Ev, symObjAddr: 0x9B40, symBinAddr: 0x10000BCD8, symSize: 0x28 }
  - { offsetInCU: 0x182D2, offset: 0x182D2, size: 0x8, addend: 0x0, symName: __ZNKSt3__117__compressed_pairIP7ProcessRNS_9allocatorIS1_EEE5firstB7v160006Ev, symObjAddr: 0x9B68, symBinAddr: 0x10000BD00, symSize: 0x24 }
  - { offsetInCU: 0x182F8, offset: 0x182F8, size: 0x8, addend: 0x0, symName: __ZNSt3__18ios_base9precisionB7v160006El, symObjAddr: 0x9B8C, symBinAddr: 0x10000BD24, symSize: 0x2C }
  - { offsetInCU: 0x1833E, offset: 0x1833E, size: 0x8, addend: 0x0, symName: __ZNKSt3__16vectorI7ProcessNS_9allocatorIS1_EEE11__make_iterB7v160006EPKS1_, symObjAddr: 0x9BB8, symBinAddr: 0x10000BD50, symSize: 0x34 }
  - { offsetInCU: 0x18373, offset: 0x18373, size: 0x8, addend: 0x0, symName: __ZNSt3__111__wrap_iterIPK7ProcessEC1B7v160006EPKvS3_, symObjAddr: 0x9BEC, symBinAddr: 0x10000BD84, symSize: 0x3C }
  - { offsetInCU: 0x183B9, offset: 0x183B9, size: 0x8, addend: 0x0, symName: __ZNSt3__111__wrap_iterIPK7ProcessEC2B7v160006EPKvS3_, symObjAddr: 0x9C28, symBinAddr: 0x10000BDC0, symSize: 0x24 }
  - { offsetInCU: 0x1842D, offset: 0x1842D, size: 0x8, addend: 0x0, symName: __ZNK10IsCpuBoundclERK7Process, symObjAddr: 0x9C80, symBinAddr: 0x10000BE18, symSize: 0x20 }
  - { offsetInCU: 0x18461, offset: 0x18461, size: 0x8, addend: 0x0, symName: __ZNKSt3__111__wrap_iterIPK7ProcessEdeB7v160006Ev, symObjAddr: 0x9CA0, symBinAddr: 0x10000BE38, symSize: 0x18 }
  - { offsetInCU: 0x18487, offset: 0x18487, size: 0x8, addend: 0x0, symName: __ZNSt3__111__wrap_iterIPK7ProcessEppB7v160006Ev, symObjAddr: 0x9CB8, symBinAddr: 0x10000BE50, symSize: 0x20 }
  - { offsetInCU: 0x184AD, offset: 0x184AD, size: 0x8, addend: 0x0, symName: __ZNKSt3__111__wrap_iterIPK7ProcessE4baseB7v160006Ev, symObjAddr: 0x9D20, symBinAddr: 0x10000BEB8, symSize: 0x18 }
  - { offsetInCU: 0x184D3, offset: 0x184D3, size: 0x8, addend: 0x0, symName: __ZNSt3__19basic_iosIcNS_11char_traitsIcEEEC2B7v160006Ev, symObjAddr: 0x9D38, symBinAddr: 0x10000BED0, symSize: 0x44 }
  - { offsetInCU: 0x184FD, offset: 0x184FD, size: 0x8, addend: 0x0, symName: __ZNSt3__113basic_ostreamIcNS_11char_traitsIcEEEC2B7v160006EPNS_15basic_streambufIcS2_EE, symObjAddr: 0x9D7C, symBinAddr: 0x10000BF14, symSize: 0x60 }
  - { offsetInCU: 0x18542, offset: 0x18542, size: 0x8, addend: 0x0, symName: __ZNSt3__113basic_filebufIcNS_11char_traitsIcEEE4openERKNS_12basic_stringIcS2_NS_9allocatorIcEEEEj, symObjAddr: 0x9DDC, symBinAddr: 0x10000BF74, symSize: 0x44 }
  - { offsetInCU: 0x18586, offset: 0x18586, size: 0x8, addend: 0x0, symName: __ZNSt3__18ios_baseC2B7v160006Ev, symObjAddr: 0x9E20, symBinAddr: 0x10000BFB8, symSize: 0x24 }
  - { offsetInCU: 0x185B0, offset: 0x185B0, size: 0x8, addend: 0x0, symName: __ZNSt3__19basic_iosIcNS_11char_traitsIcEEE4initB7v160006EPNS_15basic_streambufIcS2_EE, symObjAddr: 0x9E44, symBinAddr: 0x10000BFDC, symSize: 0x44 }
  - { offsetInCU: 0x185E7, offset: 0x185E7, size: 0x8, addend: 0x0, symName: __ZNKSt3__112basic_stringIcNS_11char_traitsIcEENS_9allocatorIcEEE5c_strB7v160006Ev, symObjAddr: 0x9E88, symBinAddr: 0x10000C020, symSize: 0x24 }
  - { offsetInCU: 0x4671, offset: 0x1CE9C, size: 0x8, addend: 0x0, symName: __ZNSt3__17advanceB7v160006IPimmvEEvRT_T0_, symObjAddr: 0x3AE4, symBinAddr: 0x10000E934, symSize: 0x50 }
  - { offsetInCU: 0x5ABF, offset: 0x1E2EA, size: 0x8, addend: 0x0, symName: __ZNSt3__111__sift_downB7v160006INS_17_ClassicAlgPolicyERPFbRK7ProcessS4_ENS_11__wrap_iterIPS2_EEEEvT1_OT0_NS_15iterator_traitsISB_E15difference_typeESB_, symObjAddr: 0x7770, symBinAddr: 0x1000103D0, symSize: 0x33C }
  - { offsetInCU: 0x5D8F, offset: 0x1E5BA, size: 0x8, addend: 0x0, symName: __ZNSt3__117__floyd_sift_downB7v160006INS_17_ClassicAlgPolicyERPFbRK7ProcessS4_ENS_11__wrap_iterIPS2_EEEET1_SB_OT0_NS_15iterator_traitsISB_E15difference_typeE, symObjAddr: 0x8244, symBinAddr: 0x100010ABC, symSize: 0x14C }
  - { offsetInCU: 0x5E27, offset: 0x1E652, size: 0x8, addend: 0x0, symName: __ZNSt3__111__introsortINS_17_ClassicAlgPolicyERPFbRK7ProcessS4_EPS2_EEvT1_S9_T0_NS_15iterator_traitsIS9_E15difference_typeE, symObjAddr: 0x85A4, symBinAddr: 0x100010E1C, symSize: 0x6F8 }
  - { offsetInCU: 0x5F86, offset: 0x1E7B1, size: 0x8, addend: 0x0, symName: __ZNSt3__118__insertion_sort_3B7v160006INS_17_ClassicAlgPolicyERPFbRK7ProcessS4_EPS2_EEvT1_S9_T0_, symObjAddr: 0x8DD0, symBinAddr: 0x100011648, symSize: 0x1A8 }
  - { offsetInCU: 0x6049, offset: 0x1E874, size: 0x8, addend: 0x0, symName: __ZNSt3__111__sift_downB7v160006INS_17_ClassicAlgPolicyERPFbRK7ProcessS4_EPS2_EEvT1_OT0_NS_15iterator_traitsIS9_E15difference_typeES9_, symObjAddr: 0x98AC, symBinAddr: 0x100012124, symSize: 0x298 }
  - { offsetInCU: 0x60F7, offset: 0x1E922, size: 0x8, addend: 0x0, symName: __ZNSt3__117__floyd_sift_downB7v160006INS_17_ClassicAlgPolicyERPFbRK7ProcessS4_EPS2_EET1_S9_OT0_NS_15iterator_traitsIS9_E15difference_typeE, symObjAddr: 0x9D30, symBinAddr: 0x1000125A8, symSize: 0x10C }
  - { offsetInCU: 0x618F, offset: 0x1E9BA, size: 0x8, addend: 0x0, symName: __ZNSt3__127__insertion_sort_incompleteIRPFbRK7ProcessS3_EPS1_EEbT0_S8_T_, symObjAddr: 0x91B8, symBinAddr: 0x100011A30, symSize: 0x394 }
  - { offsetInCU: 0xA220, offset: 0x22A4B, size: 0x8, addend: 0x0, symName: __ZNSt3__16copy_nB7v160006IPKcmPcEENS_9enable_ifIXsr33__is_cpp17_random_access_iteratorIT_EE5valueET1_E4typeES5_T0_S6_, symObjAddr: 0x1034C, symBinAddr: 0x100018270, symSize: 0x44 }
  - { offsetInCU: 0xA2C7, offset: 0x22AF2, size: 0x8, addend: 0x0, symName: __ZNSt3__117__floyd_sift_downB7v160006INS_17_ClassicAlgPolicyERNS_7greaterIiEENS_11__wrap_iterIPiEEEET1_S8_OT0_NS_15iterator_traitsIS8_E15difference_typeE, symObjAddr: 0x14628, symBinAddr: 0x10001B67C, symSize: 0x14C }
  - { offsetInCU: 0xCE90, offset: 0x256BB, size: 0x8, addend: 0x0, symName: __ZNSt3__14sortB7v160006INS_11__wrap_iterIP7ProcessEEPFbRKS2_S6_EEEvT_S9_T0_, symObjAddr: 0x1170, symBinAddr: 0x10000D1B4, symSize: 0x48 }
  - { offsetInCU: 0xD233, offset: 0x25A5E, size: 0x8, addend: 0x0, symName: __ZNSt3__1plB7v160006IcNS_11char_traitsIcEENS_9allocatorIcEEEENS_12basic_stringIT_T0_T1_EERKS9_PKS6_, symObjAddr: 0x1508, symBinAddr: 0x10000D434, symSize: 0x11C }
  - { offsetInCU: 0xD2D4, offset: 0x25AFF, size: 0x8, addend: 0x0, symName: __ZNSt3__1plB7v160006IcNS_11char_traitsIcEENS_9allocatorIcEEEENS_12basic_stringIT_T0_T1_EERKS9_SB_, symObjAddr: 0x175C, symBinAddr: 0x10000D688, symSize: 0x134 }
  - { offsetInCU: 0xDE4C, offset: 0x26677, size: 0x8, addend: 0x0, symName: __ZNSt3__18distanceB7v160006IPiEENS_15iterator_traitsIT_E15difference_typeES3_S3_, symObjAddr: 0x3A78, symBinAddr: 0x10000E908, symSize: 0x2C }
  - { offsetInCU: 0xDE8F, offset: 0x266BA, size: 0x8, addend: 0x0, symName: __ZNSt3__14copyB7v160006IPiS1_EET0_T_S3_S2_, symObjAddr: 0x3B34, symBinAddr: 0x10000E984, symSize: 0x40 }
  - { offsetInCU: 0xDEE9, offset: 0x26714, size: 0x8, addend: 0x0, symName: __ZNSt3__110__distanceB7v160006IPiEENS_15iterator_traitsIT_E15difference_typeES3_S3_NS_26random_access_iterator_tagE, symObjAddr: 0x3E8C, symBinAddr: 0x10000EAD8, symSize: 0x28 }
  - { offsetInCU: 0xDF37, offset: 0x26762, size: 0x8, addend: 0x0, symName: __ZNSt3__121__convert_to_integralB7v160006Em, symObjAddr: 0x3F14, symBinAddr: 0x10000EB00, symSize: 0x14 }
  - { offsetInCU: 0xDF63, offset: 0x2678E, size: 0x8, addend: 0x0, symName: __ZNSt3__19__advanceB7v160006IPiEEvRT_NS_15iterator_traitsIS2_E15difference_typeENS_26random_access_iterator_tagE, symObjAddr: 0x3F28, symBinAddr: 0x10000EB14, symSize: 0x28 }
  - { offsetInCU: 0xDFAD, offset: 0x267D8, size: 0x8, addend: 0x0, symName: __ZNSt3__16__copyB7v160006INS_17_ClassicAlgPolicyEPiS2_S2_EENS_4pairIT0_T2_EES4_T1_S5_, symObjAddr: 0x3F50, symBinAddr: 0x10000EB3C, symSize: 0x44 }
  - { offsetInCU: 0xE019, offset: 0x26844, size: 0x8, addend: 0x0, symName: __ZNSt3__123__dispatch_copy_or_moveB7v160006INS_17_ClassicAlgPolicyENS_11__copy_loopIS1_EENS_14__copy_trivialEPiS5_S5_EENS_4pairIT2_T4_EES7_T3_S8_, symObjAddr: 0x3F94, symBinAddr: 0x10000EB80, symSize: 0x54 }
  - { offsetInCU: 0xE097, offset: 0x268C2, size: 0x8, addend: 0x0, symName: __ZNSt3__121__unwrap_and_dispatchB7v160006INS_10__overloadINS_11__copy_loopINS_17_ClassicAlgPolicyEEENS_14__copy_trivialEEEPiS7_S7_Li0EEENS_4pairIT0_T2_EES9_T1_SA_, symObjAddr: 0x3FE8, symBinAddr: 0x10000EBD4, symSize: 0xB4 }
  - { offsetInCU: 0xE125, offset: 0x26950, size: 0x8, addend: 0x0, symName: __ZNSt3__114__unwrap_rangeB7v160006IPiS1_EENS_4pairIT0_S3_EET_S5_, symObjAddr: 0x409C, symBinAddr: 0x10000EC88, symSize: 0x60 }
  - { offsetInCU: 0xE2A0, offset: 0x26ACB, size: 0x8, addend: 0x0, symName: __ZNSt3__113__unwrap_iterB7v160006IPiNS_18__unwrap_iter_implIS1_Lb1EEELi0EEEDTclsrT0_8__unwrapclsr3stdE7declvalIT_EEEES5_, symObjAddr: 0x4144, symBinAddr: 0x10000ED30, symSize: 0x24 }
  - { offsetInCU: 0xE2E4, offset: 0x26B0F, size: 0x8, addend: 0x0, symName: __ZNSt3__19make_pairB7v160006IPiS1_EENS_4pairINS_18__unwrap_ref_decayIT_E4typeENS3_IT0_E4typeEEEOS4_OS7_, symObjAddr: 0x4168, symBinAddr: 0x10000ED54, symSize: 0x38 }
  - { offsetInCU: 0xE333, offset: 0x26B5E, size: 0x8, addend: 0x0, symName: __ZNSt3__114__rewrap_rangeB7v160006IPiS1_EET_S2_T0_, symObjAddr: 0x41A0, symBinAddr: 0x10000ED8C, symSize: 0x2C }
  - { offsetInCU: 0xE37F, offset: 0x26BAA, size: 0x8, addend: 0x0, symName: __ZNSt3__113__rewrap_iterB7v160006IPiS1_NS_18__unwrap_iter_implIS1_Lb1EEEEET_S4_T0_, symObjAddr: 0x41CC, symBinAddr: 0x10000EDB8, symSize: 0x50 }
  - { offsetInCU: 0xE3D4, offset: 0x26BFF, size: 0x8, addend: 0x0, symName: __ZNSt3__119__copy_trivial_implB7v160006IiiEENS_4pairIPT_PT0_EES3_S3_S5_, symObjAddr: 0x421C, symBinAddr: 0x10000EE08, symSize: 0x84 }
  - { offsetInCU: 0xE43C, offset: 0x26C67, size: 0x8, addend: 0x0, symName: __ZNSt3__19make_pairB7v160006IRPiS1_EENS_4pairINS_18__unwrap_ref_decayIT_E4typeENS4_IT0_E4typeEEEOS5_OS8_, symObjAddr: 0x42A0, symBinAddr: 0x10000EE8C, symSize: 0x38 }
  - { offsetInCU: 0xE4DE, offset: 0x26D09, size: 0x8, addend: 0x0, symName: __ZNSt3__1neB7v160006ERKNS_16__deque_iteratorIiPiRiPS1_lLl1024EEES6_, symObjAddr: 0x5AE8, symBinAddr: 0x10000F56C, symSize: 0x34 }
  - { offsetInCU: 0xE51B, offset: 0x26D46, size: 0x8, addend: 0x0, symName: __ZNSt3__1eqB7v160006ERKNS_16__deque_iteratorIiPiRiPS1_lLl1024EEES6_, symObjAddr: 0x5D50, symBinAddr: 0x10000F7C0, symSize: 0x30 }
  - { offsetInCU: 0xE558, offset: 0x26D83, size: 0x8, addend: 0x0, symName: __ZNSt3__112__to_addressB7v160006IPiEEPT_S3_, symObjAddr: 0x6058, symBinAddr: 0x10000FAB4, symSize: 0x14 }
  - { offsetInCU: 0xE58D, offset: 0x26DB8, size: 0x8, addend: 0x0, symName: __ZNSt3__111__sort_implB7v160006INS_17_ClassicAlgPolicyENS_11__wrap_iterIP7ProcessEEPFbRKS3_S7_EEEvT0_SA_RT1_, symObjAddr: 0x7190, symBinAddr: 0x10000FDF0, symSize: 0xC8 }
  - { offsetInCU: 0xE635, offset: 0x26E60, size: 0x8, addend: 0x0, symName: __ZNSt3__123__debug_randomize_rangeB7v160006INS_17_ClassicAlgPolicyENS_11__wrap_iterIP7ProcessEES5_EEvT0_T1_, symObjAddr: 0x7258, symBinAddr: 0x10000FEB8, symSize: 0x14 }
  - { offsetInCU: 0xE686, offset: 0x26EB1, size: 0x8, addend: 0x0, symName: __ZNSt3__114__partial_sortB7v160006INS_17_ClassicAlgPolicyEPFbRK7ProcessS4_ENS_11__wrap_iterIPS2_EES9_EET1_SA_SA_T2_RT0_, symObjAddr: 0x726C, symBinAddr: 0x10000FECC, symSize: 0xD8 }
  - { offsetInCU: 0xE70E, offset: 0x26F39, size: 0x8, addend: 0x0, symName: __ZNSt3__16__sortIRPFbRK7ProcessS3_EPS1_EEvT0_S8_T_, symObjAddr: 0x7344, symBinAddr: 0x10000FFA4, symSize: 0x68 }
  - { offsetInCU: 0xE79E, offset: 0x26FC9, size: 0x8, addend: 0x0, symName: __ZNSt3__113__unwrap_iterB7v160006INS_11__wrap_iterIP7ProcessEENS_18__unwrap_iter_implIS4_Lb1EEELi0EEEDTclsrT0_8__unwrapclsr3stdE7declvalIT_EEEES8_, symObjAddr: 0x73AC, symBinAddr: 0x10001000C, symSize: 0x2C }
  - { offsetInCU: 0xE7E2, offset: 0x2700D, size: 0x8, addend: 0x0, symName: __ZNSt3__1eqB7v160006IP7ProcessEEbRKNS_11__wrap_iterIT_EES7_, symObjAddr: 0x73D8, symBinAddr: 0x100010038, symSize: 0x48 }
  - { offsetInCU: 0xE99A, offset: 0x271C5, size: 0x8, addend: 0x0, symName: __ZNSt3__119__partial_sort_implB7v160006INS_17_ClassicAlgPolicyERPFbRK7ProcessS4_ENS_11__wrap_iterIPS2_EESA_EET1_SB_SB_T2_OT0_, symObjAddr: 0x7440, symBinAddr: 0x1000100A0, symSize: 0x16C }
  - { offsetInCU: 0xEA31, offset: 0x2725C, size: 0x8, addend: 0x0, symName: __ZNSt3__111__make_heapB7v160006INS_17_ClassicAlgPolicyERPFbRK7ProcessS4_ENS_11__wrap_iterIPS2_EEEEvT1_SB_OT0_, symObjAddr: 0x75C4, symBinAddr: 0x100010224, symSize: 0xD4 }
  - { offsetInCU: 0xEAD5, offset: 0x27300, size: 0x8, addend: 0x0, symName: __ZNSt3__1miB7v160006IP7ProcessS2_EENS_11__wrap_iterIT_E15difference_typeERKS5_RKNS3_IT0_EE, symObjAddr: 0x7698, symBinAddr: 0x1000102F8, symSize: 0x48 }
  - { offsetInCU: 0xEB21, offset: 0x2734C, size: 0x8, addend: 0x0, symName: __ZNSt3__1neB7v160006IP7ProcessEEbRKNS_11__wrap_iterIT_EES7_, symObjAddr: 0x76E0, symBinAddr: 0x100010340, symSize: 0x34 }
  - { offsetInCU: 0xEB64, offset: 0x2738F, size: 0x8, addend: 0x0, symName: __ZNSt3__111__sort_heapB7v160006INS_17_ClassicAlgPolicyERPFbRK7ProcessS4_ENS_11__wrap_iterIPS2_EEEEvT1_SB_OT0_, symObjAddr: 0x7ACC, symBinAddr: 0x10001072C, symSize: 0x98 }
  - { offsetInCU: 0xEBFA, offset: 0x27425, size: 0x8, addend: 0x0, symName: __ZNSt3__19iter_swapB7v160006INS_11__wrap_iterIP7ProcessEES4_EEvT_T0_, symObjAddr: 0x7BD0, symBinAddr: 0x100010830, symSize: 0x50 }
  - { offsetInCU: 0xEC43, offset: 0x2746E, size: 0x8, addend: 0x0, symName: __ZNSt3__14swapB7v160006I7ProcessEEvRT_S3_, symObjAddr: 0x7C20, symBinAddr: 0x100010880, symSize: 0x7C }
  - { offsetInCU: 0xECB8, offset: 0x274E3, size: 0x8, addend: 0x0, symName: __ZNSt3__110__pop_heapB7v160006INS_17_ClassicAlgPolicyEPFbRK7ProcessS4_ENS_11__wrap_iterIPS2_EEEEvT1_SA_RT0_NS_15iterator_traitsISA_E15difference_typeE, symObjAddr: 0x80B0, symBinAddr: 0x100010928, symSize: 0x174 }
  - { offsetInCU: 0xED63, offset: 0x2758E, size: 0x8, addend: 0x0, symName: __ZNSt3__19__sift_upB7v160006INS_17_ClassicAlgPolicyERPFbRK7ProcessS4_ENS_11__wrap_iterIPS2_EEEEvT1_SB_OT0_NS_15iterator_traitsISB_E15difference_typeE, symObjAddr: 0x8390, symBinAddr: 0x100010C08, symSize: 0x1AC }
  - { offsetInCU: 0xEE05, offset: 0x27630, size: 0x8, addend: 0x0, symName: __ZNSt3__17__log2iB7v160006IlEET_S1_, symObjAddr: 0x853C, symBinAddr: 0x100010DB4, symSize: 0x54 }
  - { offsetInCU: 0xEE6F, offset: 0x2769A, size: 0x8, addend: 0x0, symName: __ZNSt3__112__libcpp_clzB7v160006Em, symObjAddr: 0x8CB4, symBinAddr: 0x10001152C, symSize: 0x1C }
  - { offsetInCU: 0xEE9B, offset: 0x276C6, size: 0x8, addend: 0x0, symName: __ZNSt3__124__sort3_maybe_branchlessB7v160006INS_17_ClassicAlgPolicyERPFbRK7ProcessS4_EPS2_EENS_9enable_ifIXntsr21__use_branchless_sortIT0_T1_EE5valueEvE4typeESB_SB_SB_SA_, symObjAddr: 0x8D04, symBinAddr: 0x10001157C, symSize: 0x3C }
  - { offsetInCU: 0xEF0C, offset: 0x27737, size: 0x8, addend: 0x0, symName: __ZNSt3__124__sort4_maybe_branchlessB7v160006INS_17_ClassicAlgPolicyERPFbRK7ProcessS4_EPS2_EENS_9enable_ifIXntsr21__use_branchless_sortIT0_T1_EE5valueEvE4typeESB_SB_SB_SB_SA_, symObjAddr: 0x8D40, symBinAddr: 0x1000115B8, symSize: 0x44 }
  - { offsetInCU: 0xEF91, offset: 0x277BC, size: 0x8, addend: 0x0, symName: __ZNSt3__124__sort5_maybe_branchlessB7v160006INS_17_ClassicAlgPolicyERPFbRK7ProcessS4_EPS2_EENS_9enable_ifIXntsr21__use_branchless_sortIT0_T1_EE5valueEvE4typeESB_SB_SB_SB_SB_SA_, symObjAddr: 0x8D84, symBinAddr: 0x1000115FC, symSize: 0x4C }
  - { offsetInCU: 0xF025, offset: 0x27850, size: 0x8, addend: 0x0, symName: __ZNSt3__114__partial_sortB7v160006INS_17_ClassicAlgPolicyERPFbRK7ProcessS4_EPS2_S8_EET1_S9_S9_T2_RT0_, symObjAddr: 0x8F78, symBinAddr: 0x1000117F0, symSize: 0x94 }
  - { offsetInCU: 0xF0AD, offset: 0x278D8, size: 0x8, addend: 0x0, symName: __ZNSt3__119__sort5_wrap_policyB7v160006INS_17_ClassicAlgPolicyERPFbRK7ProcessS4_EPS2_EEjT1_S9_S9_S9_S9_T0_, symObjAddr: 0x900C, symBinAddr: 0x100011884, symSize: 0x54 }
  - { offsetInCU: 0xF153, offset: 0x2797E, size: 0x8, addend: 0x0, symName: __ZNSt3__17__sort3B7v160006INS_17_ClassicAlgPolicyERPFbRK7ProcessS4_EPS2_EEjT1_S9_S9_T0_, symObjAddr: 0x9060, symBinAddr: 0x1000118D8, symSize: 0x158 }
  - { offsetInCU: 0xF1D2, offset: 0x279FD, size: 0x8, addend: 0x0, symName: __ZNSt3__19iter_swapB7v160006IP7ProcessS2_EEvT_T0_, symObjAddr: 0x9564, symBinAddr: 0x100011DDC, symSize: 0x2C }
  - { offsetInCU: 0xF21B, offset: 0x27A46, size: 0x8, addend: 0x0, symName: __ZNSt3__17__sort4B7v160006INS_17_ClassicAlgPolicyERPFbRK7ProcessS4_EPS2_EEjT1_S9_S9_S9_T0_, symObjAddr: 0x9590, symBinAddr: 0x100011E08, symSize: 0xF0 }
  - { offsetInCU: 0xF2A8, offset: 0x27AD3, size: 0x8, addend: 0x0, symName: __ZNSt3__123__debug_randomize_rangeB7v160006INS_17_ClassicAlgPolicyEP7ProcessS3_EEvT0_T1_, symObjAddr: 0x96C4, symBinAddr: 0x100011F3C, symSize: 0x14 }
  - { offsetInCU: 0xF2F9, offset: 0x27B24, size: 0x8, addend: 0x0, symName: __ZNSt3__119__partial_sort_implB7v160006INS_17_ClassicAlgPolicyERPFbRK7ProcessS4_EPS2_S8_EET1_S9_S9_T2_OT0_, symObjAddr: 0x96D8, symBinAddr: 0x100011F50, symSize: 0x114 }
  - { offsetInCU: 0xF38F, offset: 0x27BBA, size: 0x8, addend: 0x0, symName: __ZNSt3__111__make_heapB7v160006INS_17_ClassicAlgPolicyERPFbRK7ProcessS4_EPS2_EEvT1_S9_OT0_, symObjAddr: 0x97EC, symBinAddr: 0x100012064, symSize: 0xC0 }
  - { offsetInCU: 0xF433, offset: 0x27C5E, size: 0x8, addend: 0x0, symName: __ZNSt3__111__sort_heapB7v160006INS_17_ClassicAlgPolicyERPFbRK7ProcessS4_EPS2_EEvT1_S9_OT0_, symObjAddr: 0x9B44, symBinAddr: 0x1000123BC, symSize: 0x90 }
  - { offsetInCU: 0xF4C9, offset: 0x27CF4, size: 0x8, addend: 0x0, symName: __ZNSt3__110__pop_heapB7v160006INS_17_ClassicAlgPolicyEPFbRK7ProcessS4_EPS2_EEvT1_S8_RT0_NS_15iterator_traitsIS8_E15difference_typeE, symObjAddr: 0x9BD4, symBinAddr: 0x10001244C, symSize: 0x15C }
  - { offsetInCU: 0xF572, offset: 0x27D9D, size: 0x8, addend: 0x0, symName: __ZNSt3__19__sift_upB7v160006INS_17_ClassicAlgPolicyERPFbRK7ProcessS4_EPS2_EEvT1_S9_OT0_NS_15iterator_traitsIS9_E15difference_typeE, symObjAddr: 0x9E3C, symBinAddr: 0x1000126B4, symSize: 0x184 }
  - { offsetInCU: 0xF613, offset: 0x27E3E, size: 0x8, addend: 0x0, symName: __ZNSt3__17__sort5IRPFbRK7ProcessS3_EPS1_EEjT0_S8_S8_S8_S8_T_, symObjAddr: 0x9FC0, symBinAddr: 0x100012838, symSize: 0x13C }
  - { offsetInCU: 0xF711, offset: 0x27F3C, size: 0x8, addend: 0x0, symName: __ZNSt3__112__to_addressB7v160006INS_11__wrap_iterIP7ProcessEEvEENS_5decayIDTclsr19__to_address_helperIT_EE6__callclsr3stdE7declvalIRKS6_EEEEE4typeES8_, symObjAddr: 0xA124, symBinAddr: 0x10001299C, symSize: 0x24 }
  - { offsetInCU: 0xFBC5, offset: 0x283F0, size: 0x8, addend: 0x0, symName: __ZNSt3__14swapB7v160006IPP7ProcessEEvRT_S5_, symObjAddr: 0xBE94, symBinAddr: 0x100013F50, symSize: 0x3C }
  - { offsetInCU: 0xFC16, offset: 0x28441, size: 0x8, addend: 0x0, symName: __ZNSt3__14moveB7v160006IPP7ProcessS3_EET0_T_S5_S4_, symObjAddr: 0xBF78, symBinAddr: 0x100014034, symSize: 0x40 }
  - { offsetInCU: 0xFC70, offset: 0x2849B, size: 0x8, addend: 0x0, symName: __ZNSt3__16__moveB7v160006INS_17_ClassicAlgPolicyEPP7ProcessS4_S4_EENS_4pairIT0_T2_EES6_T1_S7_, symObjAddr: 0xC124, symBinAddr: 0x1000141E0, symSize: 0x44 }
  - { offsetInCU: 0xFCDC, offset: 0x28507, size: 0x8, addend: 0x0, symName: __ZNSt3__123__dispatch_copy_or_moveB7v160006INS_17_ClassicAlgPolicyENS_11__move_loopIS1_EENS_14__move_trivialEPP7ProcessS7_S7_EENS_4pairIT2_T4_EES9_T3_SA_, symObjAddr: 0xC168, symBinAddr: 0x100014224, symSize: 0x54 }
  - { offsetInCU: 0xFD5A, offset: 0x28585, size: 0x8, addend: 0x0, symName: __ZNSt3__121__unwrap_and_dispatchB7v160006INS_10__overloadINS_11__move_loopINS_17_ClassicAlgPolicyEEENS_14__move_trivialEEEPP7ProcessS9_S9_Li0EEENS_4pairIT0_T2_EESB_T1_SC_, symObjAddr: 0xC1BC, symBinAddr: 0x100014278, symSize: 0xB4 }
  - { offsetInCU: 0xFDE8, offset: 0x28613, size: 0x8, addend: 0x0, symName: __ZNSt3__114__unwrap_rangeB7v160006IPP7ProcessS3_EENS_4pairIT0_S5_EET_S7_, symObjAddr: 0xC270, symBinAddr: 0x10001432C, symSize: 0x60 }
  - { offsetInCU: 0xFF9F, offset: 0x287CA, size: 0x8, addend: 0x0, symName: __ZNSt3__113__unwrap_iterB7v160006IPP7ProcessNS_18__unwrap_iter_implIS3_Lb1EEELi0EEEDTclsrT0_8__unwrapclsr3stdE7declvalIT_EEEES7_, symObjAddr: 0xC318, symBinAddr: 0x1000143D4, symSize: 0x24 }
  - { offsetInCU: 0xFFE3, offset: 0x2880E, size: 0x8, addend: 0x0, symName: __ZNSt3__19make_pairB7v160006IPP7ProcessS3_EENS_4pairINS_18__unwrap_ref_decayIT_E4typeENS5_IT0_E4typeEEEOS6_OS9_, symObjAddr: 0xC33C, symBinAddr: 0x1000143F8, symSize: 0x38 }
  - { offsetInCU: 0x10032, offset: 0x2885D, size: 0x8, addend: 0x0, symName: __ZNSt3__114__rewrap_rangeB7v160006IPP7ProcessS3_EET_S4_T0_, symObjAddr: 0xC374, symBinAddr: 0x100014430, symSize: 0x2C }
  - { offsetInCU: 0x1007E, offset: 0x288A9, size: 0x8, addend: 0x0, symName: __ZNSt3__113__rewrap_iterB7v160006IPP7ProcessS3_NS_18__unwrap_iter_implIS3_Lb1EEEEET_S6_T0_, symObjAddr: 0xC3A0, symBinAddr: 0x10001445C, symSize: 0x50 }
  - { offsetInCU: 0x100D3, offset: 0x288FE, size: 0x8, addend: 0x0, symName: __ZNSt3__119__copy_trivial_implB7v160006IP7ProcessS2_EENS_4pairIPT_PT0_EES5_S5_S7_, symObjAddr: 0xC3F0, symBinAddr: 0x1000144AC, symSize: 0x84 }
  - { offsetInCU: 0x1013B, offset: 0x28966, size: 0x8, addend: 0x0, symName: __ZNSt3__19make_pairB7v160006IRPP7ProcessS3_EENS_4pairINS_18__unwrap_ref_decayIT_E4typeENS6_IT0_E4typeEEEOS7_OSA_, symObjAddr: 0xC474, symBinAddr: 0x100014530, symSize: 0x38 }
  - { offsetInCU: 0x101DD, offset: 0x28A08, size: 0x8, addend: 0x0, symName: __ZNSt3__18distanceB7v160006INS_13move_iteratorIPP7ProcessEEEENS_15iterator_traitsIT_E15difference_typeES7_S7_, symObjAddr: 0xC590, symBinAddr: 0x10001464C, symSize: 0x3C }
  - { offsetInCU: 0x10220, offset: 0x28A4B, size: 0x8, addend: 0x0, symName: __ZNSt3__110__distanceB7v160006INS_13move_iteratorIPP7ProcessEEEENS_15iterator_traitsIT_E15difference_typeES7_S7_NS_26random_access_iterator_tagE, symObjAddr: 0xC6C8, symBinAddr: 0x100014784, symSize: 0x30 }
  - { offsetInCU: 0x1026E, offset: 0x28A99, size: 0x8, addend: 0x0, symName: __ZNSt3__1miB7v160006IPP7ProcessS3_EENS_13move_iteratorIT_E15difference_typeERKS6_RKNS4_IT0_EE, symObjAddr: 0xC6F8, symBinAddr: 0x1000147B4, symSize: 0x48 }
  - { offsetInCU: 0x102BD, offset: 0x28AE8, size: 0x8, addend: 0x0, symName: __ZNSt3__113move_backwardB7v160006IPP7ProcessS3_EET0_T_S5_S4_, symObjAddr: 0xC934, symBinAddr: 0x100014928, symSize: 0x40 }
  - { offsetInCU: 0x10317, offset: 0x28B42, size: 0x8, addend: 0x0, symName: __ZNSt3__115__move_backwardB7v160006INS_17_ClassicAlgPolicyEPP7ProcessS4_S4_EENS_4pairIT0_T2_EES6_T1_S7_, symObjAddr: 0xC974, symBinAddr: 0x100014968, symSize: 0x44 }
  - { offsetInCU: 0x10383, offset: 0x28BAE, size: 0x8, addend: 0x0, symName: __ZNSt3__123__dispatch_copy_or_moveB7v160006INS_17_ClassicAlgPolicyENS_20__move_backward_loopIS1_EENS_23__move_backward_trivialEPP7ProcessS7_S7_EENS_4pairIT2_T4_EES9_T3_SA_, symObjAddr: 0xC9B8, symBinAddr: 0x1000149AC, symSize: 0x54 }
  - { offsetInCU: 0x10401, offset: 0x28C2C, size: 0x8, addend: 0x0, symName: __ZNSt3__121__unwrap_and_dispatchB7v160006INS_10__overloadINS_20__move_backward_loopINS_17_ClassicAlgPolicyEEENS_23__move_backward_trivialEEEPP7ProcessS9_S9_Li0EEENS_4pairIT0_T2_EESB_T1_SC_, symObjAddr: 0xCA0C, symBinAddr: 0x100014A00, symSize: 0xB4 }
  - { offsetInCU: 0x10511, offset: 0x28D3C, size: 0x8, addend: 0x0, symName: __ZNSt3__128__copy_backward_trivial_implB7v160006IP7ProcessS2_EENS_4pairIPT_PT0_EES5_S5_S7_, symObjAddr: 0xCB08, symBinAddr: 0x100014AFC, symSize: 0x94 }
  - { offsetInCU: 0x10579, offset: 0x28DA4, size: 0x8, addend: 0x0, symName: __ZNSt3__19make_pairB7v160006IRPP7ProcessS4_EENS_4pairINS_18__unwrap_ref_decayIT_E4typeENS6_IT0_E4typeEEEOS7_OSA_, symObjAddr: 0xCB9C, symBinAddr: 0x100014B90, symSize: 0x38 }
  - { offsetInCU: 0x105C8, offset: 0x28DF3, size: 0x8, addend: 0x0, symName: __ZNSt3__119__allocate_at_leastB7v160006INS_9allocatorIP7ProcessEEEENS_19__allocation_resultINS_16allocator_traitsIT_E7pointerEEERS7_m, symObjAddr: 0xCCE4, symBinAddr: 0x100014CD8, symSize: 0x40 }
  - { offsetInCU: 0x109E0, offset: 0x2920B, size: 0x8, addend: 0x0, symName: __ZNSt3__14swapB7v160006IPPiEEvRT_S4_, symObjAddr: 0xE648, symBinAddr: 0x100016594, symSize: 0x3C }
  - { offsetInCU: 0x10A31, offset: 0x2925C, size: 0x8, addend: 0x0, symName: __ZNSt3__14moveB7v160006IPPiS2_EET0_T_S4_S3_, symObjAddr: 0xE72C, symBinAddr: 0x100016678, symSize: 0x40 }
  - { offsetInCU: 0x10A8B, offset: 0x292B6, size: 0x8, addend: 0x0, symName: __ZNSt3__16__moveB7v160006INS_17_ClassicAlgPolicyEPPiS3_S3_EENS_4pairIT0_T2_EES5_T1_S6_, symObjAddr: 0xE8D8, symBinAddr: 0x100016824, symSize: 0x44 }
  - { offsetInCU: 0x10AF7, offset: 0x29322, size: 0x8, addend: 0x0, symName: __ZNSt3__123__dispatch_copy_or_moveB7v160006INS_17_ClassicAlgPolicyENS_11__move_loopIS1_EENS_14__move_trivialEPPiS6_S6_EENS_4pairIT2_T4_EES8_T3_S9_, symObjAddr: 0xE91C, symBinAddr: 0x100016868, symSize: 0x54 }
  - { offsetInCU: 0x10B75, offset: 0x293A0, size: 0x8, addend: 0x0, symName: __ZNSt3__121__unwrap_and_dispatchB7v160006INS_10__overloadINS_11__move_loopINS_17_ClassicAlgPolicyEEENS_14__move_trivialEEEPPiS8_S8_Li0EEENS_4pairIT0_T2_EESA_T1_SB_, symObjAddr: 0xE970, symBinAddr: 0x1000168BC, symSize: 0xB4 }
  - { offsetInCU: 0x10C03, offset: 0x2942E, size: 0x8, addend: 0x0, symName: __ZNSt3__114__unwrap_rangeB7v160006IPPiS2_EENS_4pairIT0_S4_EET_S6_, symObjAddr: 0xEA24, symBinAddr: 0x100016970, symSize: 0x60 }
  - { offsetInCU: 0x10CFC, offset: 0x29527, size: 0x8, addend: 0x0, symName: __ZNSt3__113__unwrap_iterB7v160006IPPiNS_18__unwrap_iter_implIS2_Lb1EEELi0EEEDTclsrT0_8__unwrapclsr3stdE7declvalIT_EEEES6_, symObjAddr: 0xEACC, symBinAddr: 0x100016A18, symSize: 0x24 }
  - { offsetInCU: 0x10D40, offset: 0x2956B, size: 0x8, addend: 0x0, symName: __ZNSt3__19make_pairB7v160006IPPiS2_EENS_4pairINS_18__unwrap_ref_decayIT_E4typeENS4_IT0_E4typeEEEOS5_OS8_, symObjAddr: 0xEAF0, symBinAddr: 0x100016A3C, symSize: 0x38 }
  - { offsetInCU: 0x10D8F, offset: 0x295BA, size: 0x8, addend: 0x0, symName: __ZNSt3__114__rewrap_rangeB7v160006IPPiS2_EET_S3_T0_, symObjAddr: 0xEB28, symBinAddr: 0x100016A74, symSize: 0x2C }
  - { offsetInCU: 0x10DDB, offset: 0x29606, size: 0x8, addend: 0x0, symName: __ZNSt3__113__rewrap_iterB7v160006IPPiS2_NS_18__unwrap_iter_implIS2_Lb1EEEEET_S5_T0_, symObjAddr: 0xEB54, symBinAddr: 0x100016AA0, symSize: 0x50 }
  - { offsetInCU: 0x10E30, offset: 0x2965B, size: 0x8, addend: 0x0, symName: __ZNSt3__119__copy_trivial_implB7v160006IPiS1_EENS_4pairIPT_PT0_EES4_S4_S6_, symObjAddr: 0xEBA4, symBinAddr: 0x100016AF0, symSize: 0x84 }
  - { offsetInCU: 0x10E98, offset: 0x296C3, size: 0x8, addend: 0x0, symName: __ZNSt3__19make_pairB7v160006IRPPiS2_EENS_4pairINS_18__unwrap_ref_decayIT_E4typeENS5_IT0_E4typeEEEOS6_OS9_, symObjAddr: 0xEC28, symBinAddr: 0x100016B74, symSize: 0x38 }
  - { offsetInCU: 0x10F3A, offset: 0x29765, size: 0x8, addend: 0x0, symName: __ZNSt3__18distanceB7v160006INS_13move_iteratorIPPiEEEENS_15iterator_traitsIT_E15difference_typeES6_S6_, symObjAddr: 0xED44, symBinAddr: 0x100016C90, symSize: 0x3C }
  - { offsetInCU: 0x10F7D, offset: 0x297A8, size: 0x8, addend: 0x0, symName: __ZNSt3__110__distanceB7v160006INS_13move_iteratorIPPiEEEENS_15iterator_traitsIT_E15difference_typeES6_S6_NS_26random_access_iterator_tagE, symObjAddr: 0xEE7C, symBinAddr: 0x100016DC8, symSize: 0x30 }
  - { offsetInCU: 0x10FCB, offset: 0x297F6, size: 0x8, addend: 0x0, symName: __ZNSt3__1miB7v160006IPPiS2_EENS_13move_iteratorIT_E15difference_typeERKS5_RKNS3_IT0_EE, symObjAddr: 0xEEAC, symBinAddr: 0x100016DF8, symSize: 0x48 }
  - { offsetInCU: 0x1101A, offset: 0x29845, size: 0x8, addend: 0x0, symName: __ZNSt3__113move_backwardB7v160006IPPiS2_EET0_T_S4_S3_, symObjAddr: 0xF020, symBinAddr: 0x100016F6C, symSize: 0x40 }
  - { offsetInCU: 0x11074, offset: 0x2989F, size: 0x8, addend: 0x0, symName: __ZNSt3__115__move_backwardB7v160006INS_17_ClassicAlgPolicyEPPiS3_S3_EENS_4pairIT0_T2_EES5_T1_S6_, symObjAddr: 0xF060, symBinAddr: 0x100016FAC, symSize: 0x44 }
  - { offsetInCU: 0x110E0, offset: 0x2990B, size: 0x8, addend: 0x0, symName: __ZNSt3__123__dispatch_copy_or_moveB7v160006INS_17_ClassicAlgPolicyENS_20__move_backward_loopIS1_EENS_23__move_backward_trivialEPPiS6_S6_EENS_4pairIT2_T4_EES8_T3_S9_, symObjAddr: 0xF0A4, symBinAddr: 0x100016FF0, symSize: 0x54 }
  - { offsetInCU: 0x1115E, offset: 0x29989, size: 0x8, addend: 0x0, symName: __ZNSt3__121__unwrap_and_dispatchB7v160006INS_10__overloadINS_20__move_backward_loopINS_17_ClassicAlgPolicyEEENS_23__move_backward_trivialEEEPPiS8_S8_Li0EEENS_4pairIT0_T2_EESA_T1_SB_, symObjAddr: 0xF0F8, symBinAddr: 0x100017044, symSize: 0xB4 }
  - { offsetInCU: 0x111EC, offset: 0x29A17, size: 0x8, addend: 0x0, symName: __ZNSt3__128__copy_backward_trivial_implB7v160006IPiS1_EENS_4pairIPT_PT0_EES4_S4_S6_, symObjAddr: 0xF1F4, symBinAddr: 0x100017140, symSize: 0x94 }
  - { offsetInCU: 0x11254, offset: 0x29A7F, size: 0x8, addend: 0x0, symName: __ZNSt3__19make_pairB7v160006IRPPiS3_EENS_4pairINS_18__unwrap_ref_decayIT_E4typeENS5_IT0_E4typeEEEOS6_OS9_, symObjAddr: 0xF288, symBinAddr: 0x1000171D4, symSize: 0x38 }
  - { offsetInCU: 0x112A3, offset: 0x29ACE, size: 0x8, addend: 0x0, symName: __ZNSt3__119__allocate_at_leastB7v160006INS_9allocatorIPiEEEENS_19__allocation_resultINS_16allocator_traitsIT_E7pointerEEERS6_m, symObjAddr: 0xF3D0, symBinAddr: 0x10001731C, symSize: 0x40 }
  - { offsetInCU: 0x112E6, offset: 0x29B11, size: 0x8, addend: 0x0, symName: __ZNSt3__112__to_addressB7v160006IcEEPT_S2_, symObjAddr: 0xFAD0, symBinAddr: 0x1000179F4, symSize: 0x14 }
  - { offsetInCU: 0x11550, offset: 0x29D7B, size: 0x8, addend: 0x0, symName: __ZNSt3__14copyB7v160006IPKcPcEET0_T_S5_S4_, symObjAddr: 0x10390, symBinAddr: 0x1000182B4, symSize: 0x40 }
  - { offsetInCU: 0x115AA, offset: 0x29DD5, size: 0x8, addend: 0x0, symName: __ZNSt3__16__copyB7v160006INS_17_ClassicAlgPolicyEPKcS3_PcEENS_4pairIT0_T2_EES6_T1_S7_, symObjAddr: 0x103D0, symBinAddr: 0x1000182F4, symSize: 0x44 }
  - { offsetInCU: 0x11616, offset: 0x29E41, size: 0x8, addend: 0x0, symName: __ZNSt3__123__dispatch_copy_or_moveB7v160006INS_17_ClassicAlgPolicyENS_11__copy_loopIS1_EENS_14__copy_trivialEPKcS6_PcEENS_4pairIT2_T4_EES9_T3_SA_, symObjAddr: 0x10414, symBinAddr: 0x100018338, symSize: 0x54 }
  - { offsetInCU: 0x11694, offset: 0x29EBF, size: 0x8, addend: 0x0, symName: __ZNSt3__121__unwrap_and_dispatchB7v160006INS_10__overloadINS_11__copy_loopINS_17_ClassicAlgPolicyEEENS_14__copy_trivialEEEPKcS8_PcLi0EEENS_4pairIT0_T2_EESB_T1_SC_, symObjAddr: 0x10468, symBinAddr: 0x10001838C, symSize: 0xB4 }
  - { offsetInCU: 0x11722, offset: 0x29F4D, size: 0x8, addend: 0x0, symName: __ZNSt3__114__unwrap_rangeB7v160006IPKcS2_EENS_4pairIT0_S4_EET_S6_, symObjAddr: 0x1051C, symBinAddr: 0x100018440, symSize: 0x60 }
  - { offsetInCU: 0x1181B, offset: 0x2A046, size: 0x8, addend: 0x0, symName: __ZNSt3__113__unwrap_iterB7v160006IPcNS_18__unwrap_iter_implIS1_Lb1EEELi0EEEDTclsrT0_8__unwrapclsr3stdE7declvalIT_EEEES5_, symObjAddr: 0x105C4, symBinAddr: 0x1000184E8, symSize: 0x24 }
  - { offsetInCU: 0x1185F, offset: 0x2A08A, size: 0x8, addend: 0x0, symName: __ZNSt3__19make_pairB7v160006IPKcPcEENS_4pairINS_18__unwrap_ref_decayIT_E4typeENS5_IT0_E4typeEEEOS6_OS9_, symObjAddr: 0x105E8, symBinAddr: 0x10001850C, symSize: 0x38 }
  - { offsetInCU: 0x118AE, offset: 0x2A0D9, size: 0x8, addend: 0x0, symName: __ZNSt3__114__rewrap_rangeB7v160006IPKcS2_EET_S3_T0_, symObjAddr: 0x10620, symBinAddr: 0x100018544, symSize: 0x2C }
  - { offsetInCU: 0x118FA, offset: 0x2A125, size: 0x8, addend: 0x0, symName: __ZNSt3__113__rewrap_iterB7v160006IPcS1_NS_18__unwrap_iter_implIS1_Lb1EEEEET_S4_T0_, symObjAddr: 0x1064C, symBinAddr: 0x100018570, symSize: 0x50 }
  - { offsetInCU: 0x1194F, offset: 0x2A17A, size: 0x8, addend: 0x0, symName: __ZNSt3__19make_pairB7v160006IPKcS2_EENS_4pairINS_18__unwrap_ref_decayIT_E4typeENS4_IT0_E4typeEEEOS5_OS8_, symObjAddr: 0x1069C, symBinAddr: 0x1000185C0, symSize: 0x38 }
  - { offsetInCU: 0x1199E, offset: 0x2A1C9, size: 0x8, addend: 0x0, symName: __ZNSt3__113__unwrap_iterB7v160006IPKcNS_18__unwrap_iter_implIS2_Lb1EEELi0EEEDTclsrT0_8__unwrapclsr3stdE7declvalIT_EEEES6_, symObjAddr: 0x106D4, symBinAddr: 0x1000185F8, symSize: 0x24 }
  - { offsetInCU: 0x11AE2, offset: 0x2A30D, size: 0x8, addend: 0x0, symName: __ZNSt3__119__copy_trivial_implB7v160006IKccEENS_4pairIPT_PT0_EES4_S4_S6_, symObjAddr: 0x1078C, symBinAddr: 0x1000186B0, symSize: 0x7C }
  - { offsetInCU: 0x11B4A, offset: 0x2A375, size: 0x8, addend: 0x0, symName: __ZNSt3__19make_pairB7v160006IRPKcPcEENS_4pairINS_18__unwrap_ref_decayIT_E4typeENS6_IT0_E4typeEEEOS7_OSA_, symObjAddr: 0x10808, symBinAddr: 0x10001872C, symSize: 0x38 }
  - { offsetInCU: 0x11BEC, offset: 0x2A417, size: 0x8, addend: 0x0, symName: __ZNSt3__113__rewrap_iterB7v160006IPKcS2_NS_18__unwrap_iter_implIS2_Lb1EEEEET_S5_T0_, symObjAddr: 0x108D4, symBinAddr: 0x1000187F8, symSize: 0x50 }
  - { offsetInCU: 0x11C41, offset: 0x2A46C, size: 0x8, addend: 0x0, symName: __ZNSt3__16fill_nB7v160006IPcmcEET_S2_T0_RKT1_, symObjAddr: 0x109B4, symBinAddr: 0x1000188D8, symSize: 0x44 }
  - { offsetInCU: 0x11CA4, offset: 0x2A4CF, size: 0x8, addend: 0x0, symName: __ZNSt3__18__fill_nB7v160006IPcmcEET_S2_T0_RKT1_, symObjAddr: 0x109F8, symBinAddr: 0x10001891C, symSize: 0x64 }
  - { offsetInCU: 0x11D07, offset: 0x2A532, size: 0x8, addend: 0x0, symName: __ZNSt3__1miB7v160006IPKiS2_EENS_11__wrap_iterIT_E15difference_typeERKS5_RKNS3_IT0_EE, symObjAddr: 0x10F38, symBinAddr: 0x100018E5C, symSize: 0x48 }
  - { offsetInCU: 0x11D53, offset: 0x2A57E, size: 0x8, addend: 0x0, symName: __ZNSt3__14moveB7v160006IPiS1_EET0_T_S3_S2_, symObjAddr: 0x10FAC, symBinAddr: 0x100018ED0, symSize: 0x40 }
  - { offsetInCU: 0x11DAD, offset: 0x2A5D8, size: 0x8, addend: 0x0, symName: __ZNSt3__16__moveB7v160006INS_17_ClassicAlgPolicyEPiS2_S2_EENS_4pairIT0_T2_EES4_T1_S5_, symObjAddr: 0x110C8, symBinAddr: 0x100018FEC, symSize: 0x44 }
  - { offsetInCU: 0x11E19, offset: 0x2A644, size: 0x8, addend: 0x0, symName: __ZNSt3__123__dispatch_copy_or_moveB7v160006INS_17_ClassicAlgPolicyENS_11__move_loopIS1_EENS_14__move_trivialEPiS5_S5_EENS_4pairIT2_T4_EES7_T3_S8_, symObjAddr: 0x1110C, symBinAddr: 0x100019030, symSize: 0x54 }
  - { offsetInCU: 0x11E97, offset: 0x2A6C2, size: 0x8, addend: 0x0, symName: __ZNSt3__121__unwrap_and_dispatchB7v160006INS_10__overloadINS_11__move_loopINS_17_ClassicAlgPolicyEEENS_14__move_trivialEEEPiS7_S7_Li0EEENS_4pairIT0_T2_EES9_T1_SA_, symObjAddr: 0x11160, symBinAddr: 0x100019084, symSize: 0xB4 }
  - { offsetInCU: 0x11F43, offset: 0x2A76E, size: 0x8, addend: 0x0, symName: __ZNSt3__127__tree_balance_after_insertB7v160006IPNS_16__tree_node_baseIPvEEEEvT_S5_, symObjAddr: 0x11C68, symBinAddr: 0x100019B8C, symSize: 0x340 }
  - { offsetInCU: 0x11FB8, offset: 0x2A7E3, size: 0x8, addend: 0x0, symName: __ZNSt3__120__tree_is_left_childB7v160006IPNS_16__tree_node_baseIPvEEEEbT_, symObjAddr: 0x11FE8, symBinAddr: 0x100019F0C, symSize: 0x2C }
  - { offsetInCU: 0x11FED, offset: 0x2A818, size: 0x8, addend: 0x0, symName: __ZNSt3__118__tree_left_rotateB7v160006IPNS_16__tree_node_baseIPvEEEEvT_, symObjAddr: 0x12014, symBinAddr: 0x100019F38, symSize: 0xEC }
  - { offsetInCU: 0x1202F, offset: 0x2A85A, size: 0x8, addend: 0x0, symName: __ZNSt3__119__tree_right_rotateB7v160006IPNS_16__tree_node_baseIPvEEEEvT_, symObjAddr: 0x12100, symBinAddr: 0x10001A024, symSize: 0xCC }
  - { offsetInCU: 0x12071, offset: 0x2A89C, size: 0x8, addend: 0x0, symName: __ZNSt3__19push_heapB7v160006INS_11__wrap_iterIPiEENS_7greaterIiEEEEvT_S6_T0_, symObjAddr: 0x1247C, symBinAddr: 0x10001A334, symSize: 0x40 }
  - { offsetInCU: 0x120C8, offset: 0x2A8F3, size: 0x8, addend: 0x0, symName: __ZNSt3__111__push_heapB7v160006INS_17_ClassicAlgPolicyENS_11__wrap_iterIPiEENS_7greaterIiEEEEvT0_S7_RT1_, symObjAddr: 0x13350, symBinAddr: 0x10001A3A4, symSize: 0x5C }
  - { offsetInCU: 0x12136, offset: 0x2A961, size: 0x8, addend: 0x0, symName: __ZNSt3__1miB7v160006IPiS1_EENS_11__wrap_iterIT_E15difference_typeERKS4_RKNS2_IT0_EE, symObjAddr: 0x133AC, symBinAddr: 0x10001A400, symSize: 0x48 }
  - { offsetInCU: 0x12182, offset: 0x2A9AD, size: 0x8, addend: 0x0, symName: __ZNSt3__19__sift_upB7v160006INS_17_ClassicAlgPolicyERNS_7greaterIiEENS_11__wrap_iterIPiEEEEvT1_S8_OT0_NS_15iterator_traitsIS8_E15difference_typeE, symObjAddr: 0x133F4, symBinAddr: 0x10001A448, symSize: 0x168 }
  - { offsetInCU: 0x12235, offset: 0x2AA60, size: 0x8, addend: 0x0, symName: __ZNSt3__1eqB7v160006ERKNS_15__tree_iteratorINS_12__value_typeIi7ProcessEEPNS_11__tree_nodeIS3_PvEElEESA_, symObjAddr: 0x137F0, symBinAddr: 0x10001A844, symSize: 0x30 }
  - { offsetInCU: 0x12272, offset: 0x2AA9D, size: 0x8, addend: 0x0, symName: __ZNSt3__1neB7v160006ERKNS_15__tree_iteratorINS_12__value_typeIi7ProcessEEPNS_11__tree_nodeIS3_PvEElEESA_, symObjAddr: 0x139C4, symBinAddr: 0x10001AA18, symSize: 0x34 }
  - { offsetInCU: 0x122AF, offset: 0x2AADA, size: 0x8, addend: 0x0, symName: __ZNSt3__113__tree_removeB7v160006IPNS_16__tree_node_baseIPvEEEEvT_S5_, symObjAddr: 0x13C00, symBinAddr: 0x10001AC54, symSize: 0x6E0 }
  - { offsetInCU: 0x1232D, offset: 0x2AB58, size: 0x8, addend: 0x0, symName: __ZNSt3__116__tree_next_iterB7v160006IPNS_15__tree_end_nodeIPNS_16__tree_node_baseIPvEEEES5_EET_T0_, symObjAddr: 0x14300, symBinAddr: 0x10001B354, symSize: 0x80 }
  - { offsetInCU: 0x1236B, offset: 0x2AB96, size: 0x8, addend: 0x0, symName: __ZNSt3__110__tree_minB7v160006IPNS_16__tree_node_baseIPvEEEET_S5_, symObjAddr: 0x14380, symBinAddr: 0x10001B3D4, symSize: 0x40 }
  - { offsetInCU: 0x123A0, offset: 0x2ABCB, size: 0x8, addend: 0x0, symName: __ZNSt3__111__tree_nextB7v160006IPNS_16__tree_node_baseIPvEEEET_S5_, symObjAddr: 0x143C0, symBinAddr: 0x10001B414, symSize: 0x80 }
  - { offsetInCU: 0x123D5, offset: 0x2AC00, size: 0x8, addend: 0x0, symName: __ZNSt3__18pop_heapB7v160006INS_11__wrap_iterIPiEENS_7greaterIiEEEEvT_S6_T0_, symObjAddr: 0x14460, symBinAddr: 0x10001B4B4, symSize: 0x58 }
  - { offsetInCU: 0x1243A, offset: 0x2AC65, size: 0x8, addend: 0x0, symName: __ZNSt3__110__pop_heapB7v160006INS_17_ClassicAlgPolicyENS_7greaterIiEENS_11__wrap_iterIPiEEEEvT1_S7_RT0_NS_15iterator_traitsIS7_E15difference_typeE, symObjAddr: 0x144E4, symBinAddr: 0x10001B538, symSize: 0x144 }
  - { offsetInCU: 0x124EC, offset: 0x2AD17, size: 0x8, addend: 0x0, symName: __ZNSt3__1eqB7v160006IPiEEbRKNS_11__wrap_iterIT_EES6_, symObjAddr: 0x14774, symBinAddr: 0x10001B7C8, symSize: 0x48 }
  - { offsetInCU: 0x1252F, offset: 0x2AD5A, size: 0x8, addend: 0x0, symName: __ZNSt3__18distanceB7v160006INS_16__deque_iteratorI7ProcessPKS2_RS3_PKS4_lLl51EEEEENS_15iterator_traitsIT_E15difference_typeESA_SA_, symObjAddr: 0x14FF4, symBinAddr: 0x10001BFFC, symSize: 0x4C }
  - { offsetInCU: 0x12572, offset: 0x2AD9D, size: 0x8, addend: 0x0, symName: __ZNSt3__1neB7v160006ERKNS_5dequeI7ProcessNS_9allocatorIS1_EEE13__deque_rangeES7_, symObjAddr: 0x15700, symBinAddr: 0x10001C708, symSize: 0x34 }
  - { offsetInCU: 0x125AF, offset: 0x2ADDA, size: 0x8, addend: 0x0, symName: __ZNSt3__110__distanceB7v160006INS_16__deque_iteratorI7ProcessPKS2_RS3_PKS4_lLl51EEEEENS_15iterator_traitsIT_E15difference_typeESA_SA_NS_26random_access_iterator_tagE, symObjAddr: 0x15904, symBinAddr: 0x10001C90C, symSize: 0x38 }
  - { offsetInCU: 0x125FD, offset: 0x2AE28, size: 0x8, addend: 0x0, symName: __ZNSt3__1miB7v160006ERKNS_16__deque_iteratorI7ProcessPKS1_RS2_PKS3_lLl51EEES9_, symObjAddr: 0x1593C, symBinAddr: 0x10001C944, symSize: 0xB0 }
  - { offsetInCU: 0x1263A, offset: 0x2AE65, size: 0x8, addend: 0x0, symName: __ZNSt3__1neB7v160006ERKNS_16__deque_iteratorI7ProcessPKS1_RS2_PKS3_lLl51EEES9_, symObjAddr: 0x159EC, symBinAddr: 0x10001C9F4, symSize: 0x34 }
  - { offsetInCU: 0x12677, offset: 0x2AEA2, size: 0x8, addend: 0x0, symName: __ZNSt3__1eqB7v160006ERKNS_16__deque_iteratorI7ProcessPKS1_RS2_PKS3_lLl51EEES9_, symObjAddr: 0x15A20, symBinAddr: 0x10001CA28, symSize: 0x30 }
  - { offsetInCU: 0x126B4, offset: 0x2AEDF, size: 0x8, addend: 0x0, symName: __ZNSt3__1eqB7v160006ERKNS_5dequeI7ProcessNS_9allocatorIS1_EEE13__deque_rangeES7_, symObjAddr: 0x15E7C, symBinAddr: 0x10001CE84, symSize: 0x30 }
  - { offsetInCU: 0x1552B, offset: 0x2DD56, size: 0x8, addend: 0x0, symName: __ZN4fcfs13sim_and_printEv, symObjAddr: 0x0, symBinAddr: 0x10000C044, symSize: 0x1170 }
  - { offsetInCU: 0x156A9, offset: 0x2DED4, size: 0x8, addend: 0x0, symName: __ZNSt3__16vectorI7ProcessNS_9allocatorIS1_EEE5beginB7v160006Ev, symObjAddr: 0x11B8, symBinAddr: 0x10000D1FC, symSize: 0x30 }
  - { offsetInCU: 0x156D1, offset: 0x2DEFC, size: 0x8, addend: 0x0, symName: __ZNSt3__16vectorI7ProcessNS_9allocatorIS1_EEE3endB7v160006Ev, symObjAddr: 0x11E8, symBinAddr: 0x10000D22C, symSize: 0x30 }
  - { offsetInCU: 0x156F9, offset: 0x2DF24, size: 0x8, addend: 0x0, symName: __ZN4fcfs23compare_by_arrival_timeERK7ProcessS2_, symObjAddr: 0x1218, symBinAddr: 0x10000D25C, symSize: 0x30 }
  - { offsetInCU: 0x1572A, offset: 0x2DF55, size: 0x8, addend: 0x0, symName: __ZN4fcfs10print_lineERKNSt3__112basic_stringIcNS0_11char_traitsIcEENS0_9allocatorIcEEEE, symObjAddr: 0x1248, symBinAddr: 0x10000D28C, symSize: 0xD8 }
  - { offsetInCU: 0x157CC, offset: 0x2DFF7, size: 0x8, addend: 0x0, symName: __ZNSt3__15queueIiNS_5dequeIiNS_9allocatorIiEEEEEC1B7v160006Ev, symObjAddr: 0x13B8, symBinAddr: 0x10000D364, symSize: 0x2C }
  - { offsetInCU: 0x157F6, offset: 0x2E021, size: 0x8, addend: 0x0, symName: __ZNKSt3__114priority_queueIiNS_6vectorIiNS_9allocatorIiEEEENS_7greaterIiEEE5emptyB7v160006Ev, symObjAddr: 0x1464, symBinAddr: 0x10000D390, symSize: 0x28 }
  - { offsetInCU: 0x1581C, offset: 0x2E047, size: 0x8, addend: 0x0, symName: __ZNKSt3__114priority_queueIiNS_6vectorIiNS_9allocatorIiEEEENS_7greaterIiEEE3topB7v160006Ev, symObjAddr: 0x148C, symBinAddr: 0x10000D3B8, symSize: 0x24 }
  - { offsetInCU: 0x15842, offset: 0x2E06D, size: 0x8, addend: 0x0, symName: __ZNSt3__15queueI7ProcessNS_5dequeIS1_NS_9allocatorIS1_EEEEE4pushB7v160006ERKS1_, symObjAddr: 0x14B0, symBinAddr: 0x10000D3DC, symSize: 0x2C }
  - { offsetInCU: 0x15877, offset: 0x2E0A2, size: 0x8, addend: 0x0, symName: __ZNSt3__15queueIiNS_5dequeIiNS_9allocatorIiEEEEE4pushB7v160006ERKi, symObjAddr: 0x14DC, symBinAddr: 0x10000D408, symSize: 0x2C }
  - { offsetInCU: 0x158AC, offset: 0x2E0D7, size: 0x8, addend: 0x0, symName: __ZNKSt3__15queueI7ProcessNS_5dequeIS1_NS_9allocatorIS1_EEEEE5emptyB7v160006Ev, symObjAddr: 0x1624, symBinAddr: 0x10000D550, symSize: 0x28 }
  - { offsetInCU: 0x158D2, offset: 0x2E0FD, size: 0x8, addend: 0x0, symName: __ZNSt3__15queueIiNS_5dequeIiNS_9allocatorIiEEEEE5frontB7v160006Ev, symObjAddr: 0x164C, symBinAddr: 0x10000D578, symSize: 0x24 }
  - { offsetInCU: 0x158F8, offset: 0x2E123, size: 0x8, addend: 0x0, symName: __ZNSt3__15queueI7ProcessNS_5dequeIS1_NS_9allocatorIS1_EEEEE5frontB7v160006Ev, symObjAddr: 0x1670, symBinAddr: 0x10000D59C, symSize: 0x24 }
  - { offsetInCU: 0x1591E, offset: 0x2E149, size: 0x8, addend: 0x0, symName: __ZN7ProcessaSERKS_, symObjAddr: 0x1694, symBinAddr: 0x10000D5C0, symSize: 0x68 }
  - { offsetInCU: 0x1594F, offset: 0x2E17A, size: 0x8, addend: 0x0, symName: __ZNSt3__15queueI7ProcessNS_5dequeIS1_NS_9allocatorIS1_EEEEE3popB7v160006Ev, symObjAddr: 0x16FC, symBinAddr: 0x10000D628, symSize: 0x24 }
  - { offsetInCU: 0x15975, offset: 0x2E1A0, size: 0x8, addend: 0x0, symName: __ZNSt3__15queueIiNS_5dequeIiNS_9allocatorIiEEEEE3popB7v160006Ev, symObjAddr: 0x1720, symBinAddr: 0x10000D64C, symSize: 0x24 }
  - { offsetInCU: 0x1599B, offset: 0x2E1C6, size: 0x8, addend: 0x0, symName: __ZNSt3__16vectorIiNS_9allocatorIiEEE5frontB7v160006Ev, symObjAddr: 0x1744, symBinAddr: 0x10000D670, symSize: 0x18 }
  - { offsetInCU: 0x159C1, offset: 0x2E1EC, size: 0x8, addend: 0x0, symName: __ZNSt3__16vectorIiNS_9allocatorIiEEE5eraseB7v160006ENS_11__wrap_iterIPKiEE, symObjAddr: 0x1890, symBinAddr: 0x10000D7BC, symSize: 0xB4 }
  - { offsetInCU: 0x15A16, offset: 0x2E241, size: 0x8, addend: 0x0, symName: __ZNSt3__16vectorIiNS_9allocatorIiEEE5beginB7v160006Ev, symObjAddr: 0x1944, symBinAddr: 0x10000D870, symSize: 0x30 }
  - { offsetInCU: 0x15A48, offset: 0x2E273, size: 0x8, addend: 0x0, symName: __ZNSt3__111__wrap_iterIPKiEC1B7v160006IPiEERKNS0_IT_EEPNS_9enable_ifIXsr14is_convertibleIS6_S2_EE5valueEvE4typeE, symObjAddr: 0x1974, symBinAddr: 0x10000D8A0, symSize: 0x3C }
  - { offsetInCU: 0x15A94, offset: 0x2E2BF, size: 0x8, addend: 0x0, symName: __ZNKSt3__16vectorIiNS_9allocatorIiEEE5emptyB7v160006Ev, symObjAddr: 0x19D8, symBinAddr: 0x10000D8DC, symSize: 0x28 }
  - { offsetInCU: 0x15ABA, offset: 0x2E2E5, size: 0x8, addend: 0x0, symName: __ZNSt3__13mapIi7ProcessNS_4lessIiEENS_9allocatorINS_4pairIKiS1_EEEEEixERS6_, symObjAddr: 0x1A00, symBinAddr: 0x10000D904, symSize: 0xC8 }
  - { offsetInCU: 0x15B33, offset: 0x2E35E, size: 0x8, addend: 0x0, symName: __ZNSt3__114priority_queueIiNS_6vectorIiNS_9allocatorIiEEEENS_7greaterIiEEE4pushERKi, symObjAddr: 0x1AC8, symBinAddr: 0x10000D9CC, symSize: 0x58 }
  - { offsetInCU: 0x15B6A, offset: 0x2E395, size: 0x8, addend: 0x0, symName: __ZNKSt3__114priority_queueIiNS_6vectorIiNS_9allocatorIiEEEENS_7greaterIiEEE4sizeB7v160006Ev, symObjAddr: 0x1B20, symBinAddr: 0x10000DA24, symSize: 0x24 }
  - { offsetInCU: 0x15B90, offset: 0x2E3BB, size: 0x8, addend: 0x0, symName: __ZNSt3__13mapIi7ProcessNS_4lessIiEENS_9allocatorINS_4pairIKiS1_EEEEE5eraseB7v160006ERS6_, symObjAddr: 0x1B44, symBinAddr: 0x10000DA48, symSize: 0x2C }
  - { offsetInCU: 0x15BC5, offset: 0x2E3F0, size: 0x8, addend: 0x0, symName: __ZNSt3__114priority_queueIiNS_6vectorIiNS_9allocatorIiEEEENS_7greaterIiEEE3popEv, symObjAddr: 0x1B70, symBinAddr: 0x10000DA74, symSize: 0x50 }
  - { offsetInCU: 0x15BED, offset: 0x2E418, size: 0x8, addend: 0x0, symName: __ZNSt3__15queueIiNS_5dequeIiNS_9allocatorIiEEEEED1Ev, symObjAddr: 0x1BEC, symBinAddr: 0x10000DAC4, symSize: 0x2C }
  - { offsetInCU: 0x15C1A, offset: 0x2E445, size: 0x8, addend: 0x0, symName: __ZN4fcfs16get_queue_statusEv, symObjAddr: 0x1C70, symBinAddr: 0x10000DAF0, symSize: 0x1C8 }
  - { offsetInCU: 0x15C66, offset: 0x2E491, size: 0x8, addend: 0x0, symName: __ZNSt3__15queueI7ProcessNS_5dequeIS1_NS_9allocatorIS1_EEEEEC1B7v160006ERKS6_, symObjAddr: 0x1E38, symBinAddr: 0x10000DCB8, symSize: 0x34 }
  - { offsetInCU: 0x15C9F, offset: 0x2E4CA, size: 0x8, addend: 0x0, symName: __ZNSt3__112basic_stringIcNS_11char_traitsIcEENS_9allocatorIcEEE6appendB7v160006ERKS5_, symObjAddr: 0x1E6C, symBinAddr: 0x10000DCEC, symSize: 0x4C }
  - { offsetInCU: 0x15CD4, offset: 0x2E4FF, size: 0x8, addend: 0x0, symName: __ZNK4fcfs16write_statisticsERKNSt3__112basic_stringIcNS0_11char_traitsIcEENS0_9allocatorIcEEEE, symObjAddr: 0x1EE4, symBinAddr: 0x10000DD38, symSize: 0x754 }
  - { offsetInCU: 0x15E06, offset: 0x2E631, size: 0x8, addend: 0x0, symName: __ZNSt3__113basic_fstreamIcNS_11char_traitsIcEEEC1ERKNS_12basic_stringIcS2_NS_9allocatorIcEEEEj, symObjAddr: 0x2638, symBinAddr: 0x10000E48C, symSize: 0x190 }
  - { offsetInCU: 0x15E50, offset: 0x2E67B, size: 0x8, addend: 0x0, symName: __ZNSt3__113basic_fstreamIcNS_11char_traitsIcEEE5closeEv, symObjAddr: 0x2970, symBinAddr: 0x10000E61C, symSize: 0x58 }
  - { offsetInCU: 0x15E7D, offset: 0x2E6A8, size: 0x8, addend: 0x0, symName: __ZNSt3__113basic_fstreamIcNS_11char_traitsIcEEED1Ev, symObjAddr: 0x29C8, symBinAddr: 0x10000E674, symSize: 0x70 }
  - { offsetInCU: 0x15ED8, offset: 0x2E703, size: 0x8, addend: 0x0, symName: __ZNSt3__16vectorIiNS_9allocatorIiEEEaSB7v160006ERKS3_, symObjAddr: 0x3854, symBinAddr: 0x10000E6E4, symSize: 0x68 }
  - { offsetInCU: 0x15F0F, offset: 0x2E73A, size: 0x8, addend: 0x0, symName: __ZNSt3__16vectorIiNS_9allocatorIiEEE19__copy_assign_allocB7v160006ERKS3_, symObjAddr: 0x38BC, symBinAddr: 0x10000E74C, symSize: 0x2C }
  - { offsetInCU: 0x15F44, offset: 0x2E76F, size: 0x8, addend: 0x0, symName: __ZNSt3__16vectorIiNS_9allocatorIiEEE6assignIPiLi0EEEvT_S6_, symObjAddr: 0x38E8, symBinAddr: 0x10000E778, symSize: 0x17C }
  - { offsetInCU: 0x15FE4, offset: 0x2E80F, size: 0x8, addend: 0x0, symName: __ZNSt3__16vectorIiNS_9allocatorIiEEE19__copy_assign_allocB7v160006ERKS3_NS_17integral_constantIbLb0EEE, symObjAddr: 0x3A64, symBinAddr: 0x10000E8F4, symSize: 0x14 }
  - { offsetInCU: 0x16020, offset: 0x2E84B, size: 0x8, addend: 0x0, symName: __ZNSt3__16vectorIiNS_9allocatorIiEEE17__destruct_at_endB7v160006EPi, symObjAddr: 0x3C08, symBinAddr: 0x10000E9C4, symSize: 0x88 }
  - { offsetInCU: 0x16064, offset: 0x2E88F, size: 0x8, addend: 0x0, symName: __ZNSt3__16vectorIiNS_9allocatorIiEEE13__vdeallocateEv, symObjAddr: 0x3C90, symBinAddr: 0x10000EA4C, symSize: 0x8C }
  - { offsetInCU: 0x160B0, offset: 0x2E8DB, size: 0x8, addend: 0x0, symName: __ZNKSt3__114__copy_trivialclB7v160006IiiLi0EEENS_4pairIPT_PT0_EES4_S4_S6_, symObjAddr: 0x40FC, symBinAddr: 0x10000ECE8, symSize: 0x48 }
  - { offsetInCU: 0x16118, offset: 0x2E943, size: 0x8, addend: 0x0, symName: __ZNSt3__14pairIPiS1_EC1B7v160006ERKS1_S4_, symObjAddr: 0x42D8, symBinAddr: 0x10000EEC4, symSize: 0x3C }
  - { offsetInCU: 0x1615E, offset: 0x2E989, size: 0x8, addend: 0x0, symName: __ZNSt3__14pairIPiS1_EC2B7v160006ERKS1_S4_, symObjAddr: 0x4314, symBinAddr: 0x10000EF00, symSize: 0x34 }
  - { offsetInCU: 0x161A4, offset: 0x2E9CF, size: 0x8, addend: 0x0, symName: __ZNSt3__118__unwrap_iter_implIPiLb1EE8__unwrapB7v160006ES1_, symObjAddr: 0x4348, symBinAddr: 0x10000EF34, symSize: 0x24 }
  - { offsetInCU: 0x161C7, offset: 0x2E9F2, size: 0x8, addend: 0x0, symName: __ZNSt3__118__unwrap_iter_implIPiLb1EE8__rewrapB7v160006ES1_S1_, symObjAddr: 0x4380, symBinAddr: 0x10000EF58, symSize: 0x50 }
  - { offsetInCU: 0x16211, offset: 0x2EA3C, size: 0x8, addend: 0x0, symName: __ZNSt3__16vectorIiNS_9allocatorIiEEE27__invalidate_iterators_pastB7v160006EPi, symObjAddr: 0x4AC0, symBinAddr: 0x10000EFA8, symSize: 0x14 }
  - { offsetInCU: 0x16248, offset: 0x2EA73, size: 0x8, addend: 0x0, symName: __ZNKSt3__16vectorIiNS_9allocatorIiEEE17__annotate_shrinkB7v160006Em, symObjAddr: 0x4B74, symBinAddr: 0x10000EFBC, symSize: 0xB4 }
  - { offsetInCU: 0x1627D, offset: 0x2EAA8, size: 0x8, addend: 0x0, symName: __ZNSt3__16vectorIiNS_9allocatorIiEEE5clearB7v160006Ev, symObjAddr: 0x4C70, symBinAddr: 0x10000F070, symSize: 0x68 }
  - { offsetInCU: 0x162BC, offset: 0x2EAE7, size: 0x8, addend: 0x0, symName: __ZNSt3__15queueIiNS_5dequeIiNS_9allocatorIiEEEEED2Ev, symObjAddr: 0x5654, symBinAddr: 0x10000F0D8, symSize: 0x2C }
  - { offsetInCU: 0x162E9, offset: 0x2EB14, size: 0x8, addend: 0x0, symName: __ZNSt3__15dequeIiNS_9allocatorIiEEED1B7v160006Ev, symObjAddr: 0x5680, symBinAddr: 0x10000F104, symSize: 0x2C }
  - { offsetInCU: 0x16313, offset: 0x2EB3E, size: 0x8, addend: 0x0, symName: __ZNSt3__15dequeIiNS_9allocatorIiEEED2B7v160006Ev, symObjAddr: 0x56AC, symBinAddr: 0x10000F130, symSize: 0x9C }
  - { offsetInCU: 0x1636A, offset: 0x2EB95, size: 0x8, addend: 0x0, symName: __ZNSt3__15dequeIiNS_9allocatorIiEEE5clearEv, symObjAddr: 0x5748, symBinAddr: 0x10000F1CC, symSize: 0x194 }
  - { offsetInCU: 0x163CE, offset: 0x2EBF9, size: 0x8, addend: 0x0, symName: __ZNSt3__114__split_bufferIPiNS_9allocatorIS1_EEE5beginB7v160006Ev, symObjAddr: 0x58DC, symBinAddr: 0x10000F360, symSize: 0x18 }
  - { offsetInCU: 0x163F4, offset: 0x2EC1F, size: 0x8, addend: 0x0, symName: __ZNSt3__114__split_bufferIPiNS_9allocatorIS1_EEE3endB7v160006Ev, symObjAddr: 0x58F4, symBinAddr: 0x10000F378, symSize: 0x18 }
  - { offsetInCU: 0x1641A, offset: 0x2EC45, size: 0x8, addend: 0x0, symName: __ZNSt3__15dequeIiNS_9allocatorIiEEE7__allocB7v160006Ev, symObjAddr: 0x590C, symBinAddr: 0x10000F390, symSize: 0x28 }
  - { offsetInCU: 0x16440, offset: 0x2EC6B, size: 0x8, addend: 0x0, symName: __ZNSt3__114__split_bufferIPiNS_9allocatorIS1_EEED1Ev, symObjAddr: 0x5934, symBinAddr: 0x10000F3B8, symSize: 0x2C }
  - { offsetInCU: 0x1646C, offset: 0x2EC97, size: 0x8, addend: 0x0, symName: __ZNSt3__15dequeIiNS_9allocatorIiEEE5beginB7v160006Ev, symObjAddr: 0x5960, symBinAddr: 0x10000F3E4, symSize: 0xCC }
  - { offsetInCU: 0x164A1, offset: 0x2ECCC, size: 0x8, addend: 0x0, symName: __ZNSt3__15dequeIiNS_9allocatorIiEEE3endB7v160006Ev, symObjAddr: 0x5A2C, symBinAddr: 0x10000F4B0, symSize: 0xBC }
  - { offsetInCU: 0x164E5, offset: 0x2ED10, size: 0x8, addend: 0x0, symName: __ZNKSt3__116__deque_iteratorIiPiRiPS1_lLl1024EEdeB7v160006Ev, symObjAddr: 0x5B1C, symBinAddr: 0x10000F5A0, symSize: 0x18 }
  - { offsetInCU: 0x1650B, offset: 0x2ED36, size: 0x8, addend: 0x0, symName: __ZNSt3__116__deque_iteratorIiPiRiPS1_lLl1024EEppB7v160006Ev, symObjAddr: 0x5B34, symBinAddr: 0x10000F5B8, symSize: 0x70 }
  - { offsetInCU: 0x16531, offset: 0x2ED5C, size: 0x8, addend: 0x0, symName: __ZNSt3__15dequeIiNS_9allocatorIiEEE6__sizeB7v160006Ev, symObjAddr: 0x5BA4, symBinAddr: 0x10000F628, symSize: 0x28 }
  - { offsetInCU: 0x16557, offset: 0x2ED82, size: 0x8, addend: 0x0, symName: __ZNKSt3__114__split_bufferIPiNS_9allocatorIS1_EEE4sizeB7v160006Ev, symObjAddr: 0x5BCC, symBinAddr: 0x10000F650, symSize: 0x28 }
  - { offsetInCU: 0x1657D, offset: 0x2EDA8, size: 0x8, addend: 0x0, symName: __ZNSt3__114__split_bufferIPiNS_9allocatorIS1_EEE5frontB7v160006Ev, symObjAddr: 0x5BF4, symBinAddr: 0x10000F678, symSize: 0x18 }
  - { offsetInCU: 0x165A3, offset: 0x2EDCE, size: 0x8, addend: 0x0, symName: __ZNSt3__114__split_bufferIPiNS_9allocatorIS1_EEE9pop_frontB7v160006Ev, symObjAddr: 0x5C0C, symBinAddr: 0x10000F690, symSize: 0x2C }
  - { offsetInCU: 0x165C9, offset: 0x2EDF4, size: 0x8, addend: 0x0, symName: __ZNKSt3__114__split_bufferIPiNS_9allocatorIS1_EEE5emptyB7v160006Ev, symObjAddr: 0x5C38, symBinAddr: 0x10000F6BC, symSize: 0x28 }
  - { offsetInCU: 0x165EF, offset: 0x2EE1A, size: 0x8, addend: 0x0, symName: __ZNSt3__116__deque_iteratorIiPiRiPS1_lLl1024EEC1B7v160006ES3_S1_, symObjAddr: 0x5C60, symBinAddr: 0x10000F6E4, symSize: 0x3C }
  - { offsetInCU: 0x16637, offset: 0x2EE62, size: 0x8, addend: 0x0, symName: __ZNSt3__116__deque_iteratorIiPiRiPS1_lLl1024EEC2B7v160006ES3_S1_, symObjAddr: 0x5C9C, symBinAddr: 0x10000F720, symSize: 0x2C }
  - { offsetInCU: 0x1667F, offset: 0x2EEAA, size: 0x8, addend: 0x0, symName: __ZNKSt3__15dequeIiNS_9allocatorIiEEE4sizeB7v160006Ev, symObjAddr: 0x5CC8, symBinAddr: 0x10000F74C, symSize: 0x28 }
  - { offsetInCU: 0x166A5, offset: 0x2EED0, size: 0x8, addend: 0x0, symName: __ZNKSt3__15dequeIiNS_9allocatorIiEEE6__sizeB7v160006Ev, symObjAddr: 0x5CF0, symBinAddr: 0x10000F774, symSize: 0x28 }
  - { offsetInCU: 0x166CB, offset: 0x2EEF6, size: 0x8, addend: 0x0, symName: __ZNKSt3__117__compressed_pairImNS_9allocatorIiEEE5firstB7v160006Ev, symObjAddr: 0x5D18, symBinAddr: 0x10000F79C, symSize: 0x24 }
  - { offsetInCU: 0x166F1, offset: 0x2EF1C, size: 0x8, addend: 0x0, symName: __ZNSt3__117__compressed_pairImNS_9allocatorIiEEE5firstB7v160006Ev, symObjAddr: 0x5D80, symBinAddr: 0x10000F7F0, symSize: 0x24 }
  - { offsetInCU: 0x16717, offset: 0x2EF42, size: 0x8, addend: 0x0, symName: __ZNSt3__114__split_bufferIPiNS_9allocatorIS1_EEE19__destruct_at_beginB7v160006EPS1_, symObjAddr: 0x5DB8, symBinAddr: 0x10000F814, symSize: 0x2C }
  - { offsetInCU: 0x1674B, offset: 0x2EF76, size: 0x8, addend: 0x0, symName: __ZNSt3__114__split_bufferIPiNS_9allocatorIS1_EEE19__destruct_at_beginEPS1_NS_17integral_constantIbLb1EEE, symObjAddr: 0x5DE4, symBinAddr: 0x10000F840, symSize: 0x20 }
  - { offsetInCU: 0x1678C, offset: 0x2EFB7, size: 0x8, addend: 0x0, symName: __ZNSt3__117__compressed_pairImNS_9allocatorIiEEE6secondB7v160006Ev, symObjAddr: 0x5E04, symBinAddr: 0x10000F860, symSize: 0x24 }
  - { offsetInCU: 0x167B2, offset: 0x2EFDD, size: 0x8, addend: 0x0, symName: __ZNSt3__114__split_bufferIPiNS_9allocatorIS1_EEED2Ev, symObjAddr: 0x5E28, symBinAddr: 0x10000F884, symSize: 0x80 }
  - { offsetInCU: 0x167DE, offset: 0x2F009, size: 0x8, addend: 0x0, symName: __ZNSt3__114__split_bufferIPiNS_9allocatorIS1_EEE5clearB7v160006Ev, symObjAddr: 0x5EA8, symBinAddr: 0x10000F904, symSize: 0x28 }
  - { offsetInCU: 0x16804, offset: 0x2F02F, size: 0x8, addend: 0x0, symName: __ZNSt3__116allocator_traitsINS_9allocatorIPiEEE10deallocateB7v160006ERS3_PS2_m, symObjAddr: 0x5ED0, symBinAddr: 0x10000F92C, symSize: 0x34 }
  - { offsetInCU: 0x16846, offset: 0x2F071, size: 0x8, addend: 0x0, symName: __ZNSt3__114__split_bufferIPiNS_9allocatorIS1_EEE7__allocB7v160006Ev, symObjAddr: 0x5F04, symBinAddr: 0x10000F960, symSize: 0x28 }
  - { offsetInCU: 0x1686C, offset: 0x2F097, size: 0x8, addend: 0x0, symName: __ZNKSt3__114__split_bufferIPiNS_9allocatorIS1_EEE8capacityB7v160006Ev, symObjAddr: 0x5F2C, symBinAddr: 0x10000F988, symSize: 0x40 }
  - { offsetInCU: 0x16892, offset: 0x2F0BD, size: 0x8, addend: 0x0, symName: __ZNSt3__114__split_bufferIPiNS_9allocatorIS1_EEE17__destruct_at_endB7v160006EPS1_, symObjAddr: 0x5F6C, symBinAddr: 0x10000F9C8, symSize: 0x2C }
  - { offsetInCU: 0x168C6, offset: 0x2F0F1, size: 0x8, addend: 0x0, symName: __ZNSt3__114__split_bufferIPiNS_9allocatorIS1_EEE17__destruct_at_endB7v160006EPS1_NS_17integral_constantIbLb0EEE, symObjAddr: 0x5F98, symBinAddr: 0x10000F9F4, symSize: 0x94 }
  - { offsetInCU: 0x16907, offset: 0x2F132, size: 0x8, addend: 0x0, symName: __ZNSt3__116allocator_traitsINS_9allocatorIPiEEE7destroyB7v160006IS2_vEEvRS3_PT_, symObjAddr: 0x602C, symBinAddr: 0x10000FA88, symSize: 0x2C }
  - { offsetInCU: 0x16944, offset: 0x2F16F, size: 0x8, addend: 0x0, symName: __ZNSt3__19allocatorIPiE7destroyB7v160006EPS1_, symObjAddr: 0x606C, symBinAddr: 0x10000FAC8, symSize: 0x14 }
  - { offsetInCU: 0x16978, offset: 0x2F1A3, size: 0x8, addend: 0x0, symName: __ZNSt3__19allocatorIPiE10deallocateB7v160006EPS1_m, symObjAddr: 0x6080, symBinAddr: 0x10000FADC, symSize: 0x70 }
  - { offsetInCU: 0x169BA, offset: 0x2F1E5, size: 0x8, addend: 0x0, symName: __ZNSt3__117__compressed_pairIPPiNS_9allocatorIS1_EEE6secondB7v160006Ev, symObjAddr: 0x60F0, symBinAddr: 0x10000FB4C, symSize: 0x24 }
  - { offsetInCU: 0x169E0, offset: 0x2F20B, size: 0x8, addend: 0x0, symName: __ZNSt3__122__compressed_pair_elemINS_9allocatorIPiEELi1ELb1EE5__getB7v160006Ev, symObjAddr: 0x6114, symBinAddr: 0x10000FB70, symSize: 0x14 }
  - { offsetInCU: 0x16A06, offset: 0x2F231, size: 0x8, addend: 0x0, symName: __ZNKSt3__114__split_bufferIPiNS_9allocatorIS1_EEE9__end_capB7v160006Ev, symObjAddr: 0x6128, symBinAddr: 0x10000FB84, symSize: 0x28 }
  - { offsetInCU: 0x16A2C, offset: 0x2F257, size: 0x8, addend: 0x0, symName: __ZNKSt3__117__compressed_pairIPPiNS_9allocatorIS1_EEE5firstB7v160006Ev, symObjAddr: 0x6150, symBinAddr: 0x10000FBAC, symSize: 0x24 }
  - { offsetInCU: 0x16A52, offset: 0x2F27D, size: 0x8, addend: 0x0, symName: __ZNKSt3__122__compressed_pair_elemIPPiLi0ELb0EE5__getB7v160006Ev, symObjAddr: 0x6174, symBinAddr: 0x10000FBD0, symSize: 0x14 }
  - { offsetInCU: 0x16A78, offset: 0x2F2A3, size: 0x8, addend: 0x0, symName: __ZNSt3__113basic_fstreamIcNS_11char_traitsIcEEED2Ev, symObjAddr: 0x6EB8, symBinAddr: 0x10000FBE4, symSize: 0xA4 }
  - { offsetInCU: 0x16AB1, offset: 0x2F2DC, size: 0x8, addend: 0x0, symName: __ZThn16_NSt3__113basic_fstreamIcNS_11char_traitsIcEEED1Ev, symObjAddr: 0x6F5C, symBinAddr: 0x10000FC88, symSize: 0x1C }
  - { offsetInCU: 0x16AC7, offset: 0x2F2F2, size: 0x8, addend: 0x0, symName: __ZTv0_n24_NSt3__113basic_fstreamIcNS_11char_traitsIcEEED1Ev, symObjAddr: 0x6F78, symBinAddr: 0x10000FCA4, symSize: 0x28 }
  - { offsetInCU: 0x16ADD, offset: 0x2F308, size: 0x8, addend: 0x0, symName: __ZNSt3__113basic_fstreamIcNS_11char_traitsIcEEED0Ev, symObjAddr: 0x6FA0, symBinAddr: 0x10000FCCC, symSize: 0x58 }
  - { offsetInCU: 0x16B09, offset: 0x2F334, size: 0x8, addend: 0x0, symName: __ZThn16_NSt3__113basic_fstreamIcNS_11char_traitsIcEEED0Ev, symObjAddr: 0x6FF8, symBinAddr: 0x10000FD24, symSize: 0x18 }
  - { offsetInCU: 0x16B1F, offset: 0x2F34A, size: 0x8, addend: 0x0, symName: __ZTv0_n24_NSt3__113basic_fstreamIcNS_11char_traitsIcEEED0Ev, symObjAddr: 0x7010, symBinAddr: 0x10000FD3C, symSize: 0x20 }
  - { offsetInCU: 0x16B35, offset: 0x2F360, size: 0x8, addend: 0x0, symName: __ZNSt3__16vectorI7ProcessNS_9allocatorIS1_EEE11__make_iterB7v160006EPS1_, symObjAddr: 0x70FC, symBinAddr: 0x10000FD5C, symSize: 0x34 }
  - { offsetInCU: 0x16B6A, offset: 0x2F395, size: 0x8, addend: 0x0, symName: __ZNSt3__111__wrap_iterIP7ProcessEC1B7v160006EPKvS2_, symObjAddr: 0x7130, symBinAddr: 0x10000FD90, symSize: 0x3C }
  - { offsetInCU: 0x16BB0, offset: 0x2F3DB, size: 0x8, addend: 0x0, symName: __ZNSt3__111__wrap_iterIP7ProcessEC2B7v160006EPKvS2_, symObjAddr: 0x716C, symBinAddr: 0x10000FDCC, symSize: 0x24 }
  - { offsetInCU: 0x16BF6, offset: 0x2F421, size: 0x8, addend: 0x0, symName: __ZNSt3__18_IterOpsINS_17_ClassicAlgPolicyEE4nextB7v160006INS_11__wrap_iterIP7ProcessEEEET_S8_S8_, symObjAddr: 0x7420, symBinAddr: 0x100010080, symSize: 0x20 }
  - { offsetInCU: 0x16C2D, offset: 0x2F458, size: 0x8, addend: 0x0, symName: __ZNKSt3__111__wrap_iterIP7ProcessE4baseB7v160006Ev, symObjAddr: 0x75AC, symBinAddr: 0x10001020C, symSize: 0x18 }
  - { offsetInCU: 0x16C53, offset: 0x2F47E, size: 0x8, addend: 0x0, symName: __ZNKSt3__111__wrap_iterIP7ProcessEdeB7v160006Ev, symObjAddr: 0x7714, symBinAddr: 0x100010374, symSize: 0x18 }
  - { offsetInCU: 0x16C79, offset: 0x2F4A4, size: 0x8, addend: 0x0, symName: __ZNSt3__18_IterOpsINS_17_ClassicAlgPolicyEE9iter_swapB7v160006IRNS_11__wrap_iterIP7ProcessEES8_EEvOT_OT0_, symObjAddr: 0x772C, symBinAddr: 0x10001038C, symSize: 0x44 }
  - { offsetInCU: 0x16CBC, offset: 0x2F4E7, size: 0x8, addend: 0x0, symName: __ZNSt3__111__wrap_iterIP7ProcessEppB7v160006Ev, symObjAddr: 0x7AAC, symBinAddr: 0x10001070C, symSize: 0x20 }
  - { offsetInCU: 0x16CE2, offset: 0x2F50D, size: 0x8, addend: 0x0, symName: __ZNKSt3__111__wrap_iterIP7ProcessEplB7v160006El, symObjAddr: 0x7B64, symBinAddr: 0x1000107C4, symSize: 0x3C }
  - { offsetInCU: 0x16D24, offset: 0x2F54F, size: 0x8, addend: 0x0, symName: __ZNSt3__111__wrap_iterIP7ProcessEpLB7v160006El, symObjAddr: 0x7BA0, symBinAddr: 0x100010800, symSize: 0x30 }
  - { offsetInCU: 0x16D5E, offset: 0x2F589, size: 0x8, addend: 0x0, symName: __ZNSt3__18_IterOpsINS_17_ClassicAlgPolicyEE11__iter_moveB7v160006IRNS_11__wrap_iterIP7ProcessEEEENS_9enable_ifIXsr12is_referenceIDTdeclsr3stdE7declvalIRT_EEEEE5valueEDTclsr3stdE4movedeclsr3stdE7declvalISB_EEEEE4typeEOSA_, symObjAddr: 0x8084, symBinAddr: 0x1000108FC, symSize: 0x28 }
  - { offsetInCU: 0x16D8A, offset: 0x2F5B5, size: 0x8, addend: 0x0, symName: __ZNSt3__18_IterOpsINS_17_ClassicAlgPolicyEE25__validate_iter_referenceB7v160006IRNS_11__wrap_iterIP7ProcessEEEEvv, symObjAddr: 0x80AC, symBinAddr: 0x100010924, symSize: 0x4 }
  - { offsetInCU: 0x16DA8, offset: 0x2F5D3, size: 0x8, addend: 0x0, symName: __ZNSt3__111__wrap_iterIP7ProcessEmmB7v160006Ev, symObjAddr: 0x8224, symBinAddr: 0x100010A9C, symSize: 0x20 }
  - { offsetInCU: 0x16DE9, offset: 0x2F614, size: 0x8, addend: 0x0, symName: __ZNSt3__116_UnwrapAlgPolicyIRPFbRK7ProcessS3_EE10__get_compB7v160006ES6_, symObjAddr: 0x8590, symBinAddr: 0x100010E08, symSize: 0x14 }
  - { offsetInCU: 0x16E0C, offset: 0x2F637, size: 0x8, addend: 0x0, symName: __ZNSt3__18_IterOpsINS_17_ClassicAlgPolicyEE9iter_swapB7v160006IRP7ProcessS6_EEvOT_OT0_, symObjAddr: 0x8CD0, symBinAddr: 0x100011548, symSize: 0x34 }
  - { offsetInCU: 0x16E4F, offset: 0x2F67A, size: 0x8, addend: 0x0, symName: __ZNSt3__18_IterOpsINS_17_ClassicAlgPolicyEE11__iter_moveB7v160006IRP7ProcessEENS_9enable_ifIXsr12is_referenceIDTdeclsr3stdE7declvalIRT_EEEEE5valueEDTclsr3stdE4movedeclsr3stdE7declvalIS9_EEEEE4typeEOS8_, symObjAddr: 0x9680, symBinAddr: 0x100011EF8, symSize: 0x28 }
  - { offsetInCU: 0x16E7B, offset: 0x2F6A6, size: 0x8, addend: 0x0, symName: __ZNSt3__18_IterOpsINS_17_ClassicAlgPolicyEE25__validate_iter_referenceB7v160006IRP7ProcessEEvv, symObjAddr: 0x96A8, symBinAddr: 0x100011F20, symSize: 0x4 }
  - { offsetInCU: 0x16E99, offset: 0x2F6C4, size: 0x8, addend: 0x0, symName: __ZNSt3__18_IterOpsINS_17_ClassicAlgPolicyEE4nextB7v160006IP7ProcessEET_S6_S6_, symObjAddr: 0x96AC, symBinAddr: 0x100011F24, symSize: 0x18 }
  - { offsetInCU: 0x16ED0, offset: 0x2F6FB, size: 0x8, addend: 0x0, symName: __ZNSt3__118__unwrap_iter_implINS_11__wrap_iterIP7ProcessEELb1EE8__unwrapB7v160006ES4_, symObjAddr: 0xA0FC, symBinAddr: 0x100012974, symSize: 0x28 }
  - { offsetInCU: 0x16EFD, offset: 0x2F728, size: 0x8, addend: 0x0, symName: __ZNSt3__119__to_address_helperINS_11__wrap_iterIP7ProcessEEvE6__callB7v160006ERKS4_, symObjAddr: 0xA148, symBinAddr: 0x1000129C0, symSize: 0x30 }
  - { offsetInCU: 0x16F20, offset: 0x2F74B, size: 0x8, addend: 0x0, symName: __ZNSt3__114pointer_traitsINS_11__wrap_iterIP7ProcessEEE10to_addressB7v160006ES4_, symObjAddr: 0xA178, symBinAddr: 0x1000129F0, symSize: 0x2C }
  - { offsetInCU: 0x16F4A, offset: 0x2F775, size: 0x8, addend: 0x0, symName: __ZNSt3__15queueIiNS_5dequeIiNS_9allocatorIiEEEEEC2B7v160006Ev, symObjAddr: 0xA92C, symBinAddr: 0x100012A1C, symSize: 0x2C }
  - { offsetInCU: 0x16F74, offset: 0x2F79F, size: 0x8, addend: 0x0, symName: __ZNSt3__15dequeIiNS_9allocatorIiEEEC1B7v160006Ev, symObjAddr: 0xA958, symBinAddr: 0x100012A48, symSize: 0x2C }
  - { offsetInCU: 0x16F9E, offset: 0x2F7C9, size: 0x8, addend: 0x0, symName: __ZNSt3__15dequeIiNS_9allocatorIiEEEC2B7v160006Ev, symObjAddr: 0xA984, symBinAddr: 0x100012A74, symSize: 0x78 }
  - { offsetInCU: 0x16FC8, offset: 0x2F7F3, size: 0x8, addend: 0x0, symName: __ZNSt3__114__split_bufferIPiNS_9allocatorIS1_EEEC1Ev, symObjAddr: 0xA9FC, symBinAddr: 0x100012AEC, symSize: 0x2C }
  - { offsetInCU: 0x16FF4, offset: 0x2F81F, size: 0x8, addend: 0x0, symName: __ZNSt3__117__compressed_pairImNS_9allocatorIiEEEC1B7v160006IiNS_18__default_init_tagEEEOT_OT0_, symObjAddr: 0xAA28, symBinAddr: 0x100012B18, symSize: 0x3C }
  - { offsetInCU: 0x1704C, offset: 0x2F877, size: 0x8, addend: 0x0, symName: __ZNSt3__114__split_bufferIPiNS_9allocatorIS1_EEEC2Ev, symObjAddr: 0xAA64, symBinAddr: 0x100012B54, symSize: 0x48 }
  - { offsetInCU: 0x17078, offset: 0x2F8A3, size: 0x8, addend: 0x0, symName: __ZNSt3__117__compressed_pairIPPiNS_9allocatorIS1_EEEC1B7v160006IDnNS_18__default_init_tagEEEOT_OT0_, symObjAddr: 0xAAAC, symBinAddr: 0x100012B9C, symSize: 0x3C }
  - { offsetInCU: 0x170D0, offset: 0x2F8FB, size: 0x8, addend: 0x0, symName: __ZNSt3__117__compressed_pairIPPiNS_9allocatorIS1_EEEC2B7v160006IDnNS_18__default_init_tagEEEOT_OT0_, symObjAddr: 0xAAE8, symBinAddr: 0x100012BD8, symSize: 0x40 }
  - { offsetInCU: 0x17128, offset: 0x2F953, size: 0x8, addend: 0x0, symName: __ZNSt3__122__compressed_pair_elemIPPiLi0ELb0EEC2B7v160006IDnvEEOT_, symObjAddr: 0xAB28, symBinAddr: 0x100012C18, symSize: 0x1C }
  - { offsetInCU: 0x1716A, offset: 0x2F995, size: 0x8, addend: 0x0, symName: __ZNSt3__122__compressed_pair_elemINS_9allocatorIPiEELi1ELb1EEC2B7v160006ENS_18__default_init_tagE, symObjAddr: 0xAB44, symBinAddr: 0x100012C34, symSize: 0x2C }
  - { offsetInCU: 0x1719F, offset: 0x2F9CA, size: 0x8, addend: 0x0, symName: __ZNSt3__19allocatorIPiEC2B7v160006Ev, symObjAddr: 0xAB70, symBinAddr: 0x100012C60, symSize: 0x2C }
  - { offsetInCU: 0x171C9, offset: 0x2F9F4, size: 0x8, addend: 0x0, symName: __ZNSt3__116__non_trivial_ifILb1ENS_9allocatorIPiEEEC2B7v160006Ev, symObjAddr: 0xAB9C, symBinAddr: 0x100012C8C, symSize: 0x14 }
  - { offsetInCU: 0x171F3, offset: 0x2FA1E, size: 0x8, addend: 0x0, symName: __ZNSt3__117__compressed_pairImNS_9allocatorIiEEEC2B7v160006IiNS_18__default_init_tagEEEOT_OT0_, symObjAddr: 0xABB0, symBinAddr: 0x100012CA0, symSize: 0x40 }
  - { offsetInCU: 0x1724B, offset: 0x2FA76, size: 0x8, addend: 0x0, symName: __ZNKSt3__16vectorIiNS_9allocatorIiEEE5frontB7v160006Ev, symObjAddr: 0xABF0, symBinAddr: 0x100012CE0, symSize: 0x18 }
  - { offsetInCU: 0x17271, offset: 0x2FA9C, size: 0x8, addend: 0x0, symName: __ZNSt3__15dequeI7ProcessNS_9allocatorIS1_EEE9push_backERKS1_, symObjAddr: 0xAC08, symBinAddr: 0x100012CF8, symSize: 0xA0 }
  - { offsetInCU: 0x172B7, offset: 0x2FAE2, size: 0x8, addend: 0x0, symName: __ZNKSt3__15dequeI7ProcessNS_9allocatorIS1_EEE12__back_spareB7v160006Ev, symObjAddr: 0xACA8, symBinAddr: 0x100012D98, symSize: 0x54 }
  - { offsetInCU: 0x172DD, offset: 0x2FB08, size: 0x8, addend: 0x0, symName: __ZNSt3__15dequeI7ProcessNS_9allocatorIS1_EEE19__add_back_capacityEv, symObjAddr: 0xACFC, symBinAddr: 0x100012DEC, symSize: 0x32C }
  - { offsetInCU: 0x17395, offset: 0x2FBC0, size: 0x8, addend: 0x0, symName: __ZNKSt3__15dequeI7ProcessNS_9allocatorIS1_EEE10__capacityB7v160006Ev, symObjAddr: 0xB05C, symBinAddr: 0x100013118, symSize: 0x64 }
  - { offsetInCU: 0x173BB, offset: 0x2FBE6, size: 0x8, addend: 0x0, symName: __ZNKSt3__15dequeI7ProcessNS_9allocatorIS1_EEE13__front_spareB7v160006Ev, symObjAddr: 0xB0C0, symBinAddr: 0x10001317C, symSize: 0x18 }
  - { offsetInCU: 0x173E1, offset: 0x2FC0C, size: 0x8, addend: 0x0, symName: __ZNSt3__114__split_bufferIP7ProcessNS_9allocatorIS2_EEE9push_backB7v160006ERKS2_, symObjAddr: 0xB0D8, symBinAddr: 0x100013194, symSize: 0x270 }
  - { offsetInCU: 0x1745A, offset: 0x2FC85, size: 0x8, addend: 0x0, symName: __ZNKSt3__114__split_bufferIP7ProcessNS_9allocatorIS2_EEE12__back_spareB7v160006Ev, symObjAddr: 0xB348, symBinAddr: 0x100013404, symSize: 0x40 }
  - { offsetInCU: 0x17480, offset: 0x2FCAB, size: 0x8, addend: 0x0, symName: __ZNSt3__114__split_bufferIP7ProcessNS_9allocatorIS2_EEE9push_backEOS2_, symObjAddr: 0xB388, symBinAddr: 0x100013444, symSize: 0x270 }
  - { offsetInCU: 0x174F9, offset: 0x2FD24, size: 0x8, addend: 0x0, symName: __ZNSt3__116allocator_traitsINS_9allocatorI7ProcessEEE8allocateB7v160006ERS3_m, symObjAddr: 0xB5F8, symBinAddr: 0x1000136B4, symSize: 0x2C }
  - { offsetInCU: 0x1752C, offset: 0x2FD57, size: 0x8, addend: 0x0, symName: __ZNSt3__114__split_bufferIP7ProcessNS_9allocatorIS2_EEE10push_frontEOS2_, symObjAddr: 0xB624, symBinAddr: 0x1000136E0, symSize: 0x26C }
  - { offsetInCU: 0x175A5, offset: 0x2FDD0, size: 0x8, addend: 0x0, symName: __ZNSt3__114__split_bufferIP7ProcessRNS_9allocatorIS2_EEEC1EmmS5_, symObjAddr: 0xB890, symBinAddr: 0x10001394C, symSize: 0x44 }
  - { offsetInCU: 0x17600, offset: 0x2FE2B, size: 0x8, addend: 0x0, symName: __ZNSt3__122__allocator_destructorINS_9allocatorI7ProcessEEEC1B7v160006ERS3_m, symObjAddr: 0xB8D4, symBinAddr: 0x100013990, symSize: 0x3C }
  - { offsetInCU: 0x176B6, offset: 0x2FEE1, size: 0x8, addend: 0x0, symName: __ZNSt3__110unique_ptrIP7ProcessNS_22__allocator_destructorINS_9allocatorIS1_EEEEEC1B7v160006ILb1EvEES2_NS_16__dependent_typeINS_27__unique_ptr_deleter_sfinaeIS6_EEXT_EE20__good_rval_ref_typeE, symObjAddr: 0xB910, symBinAddr: 0x1000139CC, symSize: 0x3C }
  - { offsetInCU: 0x17707, offset: 0x2FF32, size: 0x8, addend: 0x0, symName: __ZNSt3__114__split_bufferIP7ProcessRNS_9allocatorIS2_EEE9push_backEOS2_, symObjAddr: 0xB94C, symBinAddr: 0x100013A08, symSize: 0x270 }
  - { offsetInCU: 0x17780, offset: 0x2FFAB, size: 0x8, addend: 0x0, symName: __ZNKSt3__110unique_ptrIP7ProcessNS_22__allocator_destructorINS_9allocatorIS1_EEEEE3getB7v160006Ev, symObjAddr: 0xBBBC, symBinAddr: 0x100013C78, symSize: 0x28 }
  - { offsetInCU: 0x177A6, offset: 0x2FFD1, size: 0x8, addend: 0x0, symName: __ZNSt3__110unique_ptrIP7ProcessNS_22__allocator_destructorINS_9allocatorIS1_EEEEE7releaseB7v160006Ev, symObjAddr: 0xBBE4, symBinAddr: 0x100013CA0, symSize: 0x44 }
  - { offsetInCU: 0x177DB, offset: 0x30006, size: 0x8, addend: 0x0, symName: __ZNSt3__114__split_bufferIP7ProcessRNS_9allocatorIS2_EEE10push_frontERKS2_, symObjAddr: 0xBC28, symBinAddr: 0x100013CE4, symSize: 0x26C }
  - { offsetInCU: 0x17854, offset: 0x3007F, size: 0x8, addend: 0x0, symName: __ZNSt3__114__split_bufferIP7ProcessNS_9allocatorIS2_EEE9__end_capB7v160006Ev, symObjAddr: 0xBED0, symBinAddr: 0x100013F8C, symSize: 0x28 }
  - { offsetInCU: 0x1787A, offset: 0x300A5, size: 0x8, addend: 0x0, symName: __ZNSt3__114__split_bufferIP7ProcessRNS_9allocatorIS2_EEE9__end_capB7v160006Ev, symObjAddr: 0xBEF8, symBinAddr: 0x100013FB4, symSize: 0x28 }
  - { offsetInCU: 0x178A0, offset: 0x300CB, size: 0x8, addend: 0x0, symName: __ZNSt3__110unique_ptrIP7ProcessNS_22__allocator_destructorINS_9allocatorIS1_EEEEED1B7v160006Ev, symObjAddr: 0xBF20, symBinAddr: 0x100013FDC, symSize: 0x2C }
  - { offsetInCU: 0x178CA, offset: 0x300F5, size: 0x8, addend: 0x0, symName: __ZNSt3__114__split_bufferIP7ProcessRNS_9allocatorIS2_EEED1Ev, symObjAddr: 0xBF4C, symBinAddr: 0x100014008, symSize: 0x2C }
  - { offsetInCU: 0x178F6, offset: 0x30121, size: 0x8, addend: 0x0, symName: __ZNSt3__114__split_bufferIP7ProcessRNS_9allocatorIS2_EEE18__construct_at_endINS_13move_iteratorIPS2_EEEENS_9enable_ifIXsr27__is_cpp17_forward_iteratorIT_EE5valueEvE4typeESC_SC_, symObjAddr: 0xBFB8, symBinAddr: 0x100014074, symSize: 0x104 }
  - { offsetInCU: 0x17952, offset: 0x3017D, size: 0x8, addend: 0x0, symName: __ZNSt3__113move_iteratorIPP7ProcessEC1B7v160006ES3_, symObjAddr: 0xC0BC, symBinAddr: 0x100014178, symSize: 0x34 }
  - { offsetInCU: 0x1798A, offset: 0x301B5, size: 0x8, addend: 0x0, symName: __ZNSt3__116allocator_traitsINS_9allocatorIP7ProcessEEE9constructB7v160006IS3_JRKS3_EvEEvRS4_PT_DpOT0_, symObjAddr: 0xC0F0, symBinAddr: 0x1000141AC, symSize: 0x34 }
  - { offsetInCU: 0x17A05, offset: 0x30230, size: 0x8, addend: 0x0, symName: __ZNKSt3__114__move_trivialclB7v160006IP7ProcessS3_Li0EEENS_4pairIPT_PT0_EES6_S6_S8_, symObjAddr: 0xC2D0, symBinAddr: 0x10001438C, symSize: 0x48 }
  - { offsetInCU: 0x17A6D, offset: 0x30298, size: 0x8, addend: 0x0, symName: __ZNSt3__14pairIPP7ProcessS3_EC1B7v160006ERKS3_S6_, symObjAddr: 0xC4AC, symBinAddr: 0x100014568, symSize: 0x3C }
  - { offsetInCU: 0x17AB3, offset: 0x302DE, size: 0x8, addend: 0x0, symName: __ZNSt3__14pairIPP7ProcessS3_EC2B7v160006ERKS3_S6_, symObjAddr: 0xC4E8, symBinAddr: 0x1000145A4, symSize: 0x34 }
  - { offsetInCU: 0x17AF9, offset: 0x30324, size: 0x8, addend: 0x0, symName: __ZNSt3__118__unwrap_iter_implIPP7ProcessLb1EE8__unwrapB7v160006ES3_, symObjAddr: 0xC51C, symBinAddr: 0x1000145D8, symSize: 0x24 }
  - { offsetInCU: 0x17B1C, offset: 0x30347, size: 0x8, addend: 0x0, symName: __ZNSt3__118__unwrap_iter_implIPP7ProcessLb1EE8__rewrapB7v160006ES3_S3_, symObjAddr: 0xC540, symBinAddr: 0x1000145FC, symSize: 0x50 }
  - { offsetInCU: 0x17B57, offset: 0x30382, size: 0x8, addend: 0x0, symName: __ZNSt3__114__split_bufferIP7ProcessRNS_9allocatorIS2_EEE21_ConstructTransactionC1B7v160006EPPS2_m, symObjAddr: 0xC5CC, symBinAddr: 0x100014688, symSize: 0x3C }
  - { offsetInCU: 0x17B9D, offset: 0x303C8, size: 0x8, addend: 0x0, symName: __ZNSt3__116allocator_traitsINS_9allocatorIP7ProcessEEE9constructB7v160006IS3_JS3_EvEEvRS4_PT_DpOT0_, symObjAddr: 0xC608, symBinAddr: 0x1000146C4, symSize: 0x34 }
  - { offsetInCU: 0x17BF4, offset: 0x3041F, size: 0x8, addend: 0x0, symName: __ZNSt3__114__split_bufferIP7ProcessRNS_9allocatorIS2_EEE7__allocB7v160006Ev, symObjAddr: 0xC63C, symBinAddr: 0x1000146F8, symSize: 0x28 }
  - { offsetInCU: 0x17C1A, offset: 0x30445, size: 0x8, addend: 0x0, symName: __ZNKSt3__113move_iteratorIPP7ProcessEdeB7v160006Ev, symObjAddr: 0xC664, symBinAddr: 0x100014720, symSize: 0x18 }
  - { offsetInCU: 0x17C40, offset: 0x3046B, size: 0x8, addend: 0x0, symName: __ZNSt3__113move_iteratorIPP7ProcessEppB7v160006Ev, symObjAddr: 0xC67C, symBinAddr: 0x100014738, symSize: 0x20 }
  - { offsetInCU: 0x17C66, offset: 0x30491, size: 0x8, addend: 0x0, symName: __ZNSt3__114__split_bufferIP7ProcessRNS_9allocatorIS2_EEE21_ConstructTransactionD1B7v160006Ev, symObjAddr: 0xC69C, symBinAddr: 0x100014758, symSize: 0x2C }
  - { offsetInCU: 0x17C90, offset: 0x304BB, size: 0x8, addend: 0x0, symName: __ZNKSt3__113move_iteratorIPP7ProcessE4baseB7v160006Ev, symObjAddr: 0xC740, symBinAddr: 0x1000147FC, symSize: 0x18 }
  - { offsetInCU: 0x17CB6, offset: 0x304E1, size: 0x8, addend: 0x0, symName: __ZNSt3__114__split_bufferIP7ProcessRNS_9allocatorIS2_EEE21_ConstructTransactionC2B7v160006EPPS2_m, symObjAddr: 0xC758, symBinAddr: 0x100014814, symSize: 0x44 }
  - { offsetInCU: 0x17CFC, offset: 0x30527, size: 0x8, addend: 0x0, symName: __ZNSt3__19allocatorIP7ProcessE9constructB7v160006IS2_JS2_EEEvPT_DpOT0_, symObjAddr: 0xC79C, symBinAddr: 0x100014858, symSize: 0x28 }
  - { offsetInCU: 0x17D52, offset: 0x3057D, size: 0x8, addend: 0x0, symName: __ZNSt3__117__compressed_pairIPP7ProcessRNS_9allocatorIS2_EEE6secondB7v160006Ev, symObjAddr: 0xC7C4, symBinAddr: 0x100014880, symSize: 0x28 }
  - { offsetInCU: 0x17D78, offset: 0x305A3, size: 0x8, addend: 0x0, symName: __ZNSt3__122__compressed_pair_elemIRNS_9allocatorIP7ProcessEELi1ELb0EE5__getB7v160006Ev, symObjAddr: 0xC7EC, symBinAddr: 0x1000148A8, symSize: 0x18 }
  - { offsetInCU: 0x17D9E, offset: 0x305C9, size: 0x8, addend: 0x0, symName: __ZNSt3__114__split_bufferIP7ProcessRNS_9allocatorIS2_EEE21_ConstructTransactionD2B7v160006Ev, symObjAddr: 0xC804, symBinAddr: 0x1000148C0, symSize: 0x20 }
  - { offsetInCU: 0x17DC8, offset: 0x305F3, size: 0x8, addend: 0x0, symName: __ZNSt3__113move_iteratorIPP7ProcessEC2B7v160006ES3_, symObjAddr: 0xC824, symBinAddr: 0x1000148E0, symSize: 0x20 }
  - { offsetInCU: 0x17E00, offset: 0x3062B, size: 0x8, addend: 0x0, symName: __ZNSt3__19allocatorIP7ProcessE9constructB7v160006IS2_JRKS2_EEEvPT_DpOT0_, symObjAddr: 0xC844, symBinAddr: 0x100014900, symSize: 0x28 }
  - { offsetInCU: 0x17E6A, offset: 0x30695, size: 0x8, addend: 0x0, symName: __ZNKSt3__123__move_backward_trivialclB7v160006IP7ProcessS3_Li0EEENS_4pairIPT_PT0_EES6_S6_S8_, symObjAddr: 0xCAC0, symBinAddr: 0x100014AB4, symSize: 0x48 }
  - { offsetInCU: 0x17ED2, offset: 0x306FD, size: 0x8, addend: 0x0, symName: __ZNSt3__114__split_bufferIP7ProcessRNS_9allocatorIS2_EEEC2EmmS5_, symObjAddr: 0xCBD4, symBinAddr: 0x100014BC8, symSize: 0xD4 }
  - { offsetInCU: 0x17F46, offset: 0x30771, size: 0x8, addend: 0x0, symName: __ZNSt3__117__compressed_pairIPP7ProcessRNS_9allocatorIS2_EEEC1B7v160006IDnS6_EEOT_OT0_, symObjAddr: 0xCCA8, symBinAddr: 0x100014C9C, symSize: 0x3C }
  - { offsetInCU: 0x17F9E, offset: 0x307C9, size: 0x8, addend: 0x0, symName: __ZNSt3__117__compressed_pairIPP7ProcessRNS_9allocatorIS2_EEEC2B7v160006IDnS6_EEOT_OT0_, symObjAddr: 0xCD24, symBinAddr: 0x100014D18, symSize: 0x48 }
  - { offsetInCU: 0x17FF6, offset: 0x30821, size: 0x8, addend: 0x0, symName: __ZNSt3__122__compressed_pair_elemIRNS_9allocatorIP7ProcessEELi1ELb0EEC2B7v160006IS5_vEEOT_, symObjAddr: 0xCD88, symBinAddr: 0x100014D60, symSize: 0x20 }
  - { offsetInCU: 0x18038, offset: 0x30863, size: 0x8, addend: 0x0, symName: __ZNSt3__19allocatorIP7ProcessE8allocateB7v160006Em, symObjAddr: 0xCDA8, symBinAddr: 0x100014D80, symSize: 0x84 }
  - { offsetInCU: 0x18076, offset: 0x308A1, size: 0x8, addend: 0x0, symName: __ZNSt3__116allocator_traitsINS_9allocatorIP7ProcessEEE8max_sizeB7v160006IS4_vEEmRKS4_, symObjAddr: 0xCE2C, symBinAddr: 0x100014E04, symSize: 0x24 }
  - { offsetInCU: 0x180A4, offset: 0x308CF, size: 0x8, addend: 0x0, symName: __ZNKSt3__19allocatorIP7ProcessE8max_sizeB7v160006Ev, symObjAddr: 0xCE50, symBinAddr: 0x100014E28, symSize: 0x14 }
  - { offsetInCU: 0x180CA, offset: 0x308F5, size: 0x8, addend: 0x0, symName: __ZNSt3__122__allocator_destructorINS_9allocatorI7ProcessEEEC2B7v160006ERS3_m, symObjAddr: 0xCE64, symBinAddr: 0x100014E3C, symSize: 0x2C }
  - { offsetInCU: 0x18110, offset: 0x3093B, size: 0x8, addend: 0x0, symName: __ZNSt3__110unique_ptrIP7ProcessNS_22__allocator_destructorINS_9allocatorIS1_EEEEEC2B7v160006ILb1EvEES2_NS_16__dependent_typeINS_27__unique_ptr_deleter_sfinaeIS6_EEXT_EE20__good_rval_ref_typeE, symObjAddr: 0xCE90, symBinAddr: 0x100014E68, symSize: 0x5C }
  - { offsetInCU: 0x18161, offset: 0x3098C, size: 0x8, addend: 0x0, symName: __ZNSt3__117__compressed_pairIP7ProcessNS_22__allocator_destructorINS_9allocatorIS1_EEEEEC1B7v160006IRS2_S6_EEOT_OT0_, symObjAddr: 0xCEEC, symBinAddr: 0x100014EC4, symSize: 0x3C }
  - { offsetInCU: 0x181B9, offset: 0x309E4, size: 0x8, addend: 0x0, symName: __ZNSt3__117__compressed_pairIP7ProcessNS_22__allocator_destructorINS_9allocatorIS1_EEEEEC2B7v160006IRS2_S6_EEOT_OT0_, symObjAddr: 0xCF28, symBinAddr: 0x100014F00, symSize: 0x48 }
  - { offsetInCU: 0x18211, offset: 0x30A3C, size: 0x8, addend: 0x0, symName: __ZNSt3__122__compressed_pair_elemIP7ProcessLi0ELb0EEC2B7v160006IRS2_vEEOT_, symObjAddr: 0xCF70, symBinAddr: 0x100014F48, symSize: 0x24 }
  - { offsetInCU: 0x18253, offset: 0x30A7E, size: 0x8, addend: 0x0, symName: __ZNSt3__122__compressed_pair_elemINS_22__allocator_destructorINS_9allocatorI7ProcessEEEELi1ELb0EEC2B7v160006IS5_vEEOT_, symObjAddr: 0xCF94, symBinAddr: 0x100014F6C, symSize: 0x24 }
  - { offsetInCU: 0x18295, offset: 0x30AC0, size: 0x8, addend: 0x0, symName: __ZNKSt3__117__compressed_pairIP7ProcessNS_22__allocator_destructorINS_9allocatorIS1_EEEEE5firstB7v160006Ev, symObjAddr: 0xCFB8, symBinAddr: 0x100014F90, symSize: 0x24 }
  - { offsetInCU: 0x182BB, offset: 0x30AE6, size: 0x8, addend: 0x0, symName: __ZNSt3__117__compressed_pairIP7ProcessNS_22__allocator_destructorINS_9allocatorIS1_EEEEE5firstB7v160006Ev, symObjAddr: 0xCFF0, symBinAddr: 0x100014FB4, symSize: 0x24 }
  - { offsetInCU: 0x182E1, offset: 0x30B0C, size: 0x8, addend: 0x0, symName: __ZNSt3__117__compressed_pairIPP7ProcessNS_9allocatorIS2_EEE5firstB7v160006Ev, symObjAddr: 0xD028, symBinAddr: 0x100014FD8, symSize: 0x24 }
  - { offsetInCU: 0x18307, offset: 0x30B32, size: 0x8, addend: 0x0, symName: __ZNSt3__122__compressed_pair_elemIPP7ProcessLi0ELb0EE5__getB7v160006Ev, symObjAddr: 0xD04C, symBinAddr: 0x100014FFC, symSize: 0x14 }
  - { offsetInCU: 0x1832D, offset: 0x30B58, size: 0x8, addend: 0x0, symName: __ZNSt3__117__compressed_pairIPP7ProcessRNS_9allocatorIS2_EEE5firstB7v160006Ev, symObjAddr: 0xD060, symBinAddr: 0x100015010, symSize: 0x24 }
  - { offsetInCU: 0x18353, offset: 0x30B7E, size: 0x8, addend: 0x0, symName: __ZNSt3__110unique_ptrIP7ProcessNS_22__allocator_destructorINS_9allocatorIS1_EEEEED2B7v160006Ev, symObjAddr: 0xD084, symBinAddr: 0x100015034, symSize: 0x30 }
  - { offsetInCU: 0x1837D, offset: 0x30BA8, size: 0x8, addend: 0x0, symName: __ZNSt3__110unique_ptrIP7ProcessNS_22__allocator_destructorINS_9allocatorIS1_EEEEE5resetB7v160006ES2_, symObjAddr: 0xD0B4, symBinAddr: 0x100015064, symSize: 0x78 }
  - { offsetInCU: 0x183C1, offset: 0x30BEC, size: 0x8, addend: 0x0, symName: __ZNSt3__117__compressed_pairIP7ProcessNS_22__allocator_destructorINS_9allocatorIS1_EEEEE6secondB7v160006Ev, symObjAddr: 0xD12C, symBinAddr: 0x1000150DC, symSize: 0x28 }
  - { offsetInCU: 0x183E7, offset: 0x30C12, size: 0x8, addend: 0x0, symName: __ZNSt3__122__allocator_destructorINS_9allocatorI7ProcessEEEclB7v160006EPS2_, symObjAddr: 0xD154, symBinAddr: 0x100015104, symSize: 0x34 }
  - { offsetInCU: 0x1841B, offset: 0x30C46, size: 0x8, addend: 0x0, symName: __ZNSt3__122__compressed_pair_elemINS_22__allocator_destructorINS_9allocatorI7ProcessEEEELi1ELb0EE5__getB7v160006Ev, symObjAddr: 0xD188, symBinAddr: 0x100015138, symSize: 0x14 }
  - { offsetInCU: 0x18441, offset: 0x30C6C, size: 0x8, addend: 0x0, symName: __ZNSt3__114__split_bufferIP7ProcessRNS_9allocatorIS2_EEED2Ev, symObjAddr: 0xD19C, symBinAddr: 0x10001514C, symSize: 0x80 }
  - { offsetInCU: 0x1846D, offset: 0x30C98, size: 0x8, addend: 0x0, symName: __ZNSt3__114__split_bufferIP7ProcessRNS_9allocatorIS2_EEE5clearB7v160006Ev, symObjAddr: 0xD21C, symBinAddr: 0x1000151CC, symSize: 0x28 }
  - { offsetInCU: 0x18493, offset: 0x30CBE, size: 0x8, addend: 0x0, symName: __ZNKSt3__114__split_bufferIP7ProcessRNS_9allocatorIS2_EEE8capacityB7v160006Ev, symObjAddr: 0xD244, symBinAddr: 0x1000151F4, symSize: 0x40 }
  - { offsetInCU: 0x184B9, offset: 0x30CE4, size: 0x8, addend: 0x0, symName: __ZNSt3__114__split_bufferIP7ProcessRNS_9allocatorIS2_EEE17__destruct_at_endB7v160006EPS2_, symObjAddr: 0xD284, symBinAddr: 0x100015234, symSize: 0x2C }
  - { offsetInCU: 0x184ED, offset: 0x30D18, size: 0x8, addend: 0x0, symName: __ZNSt3__114__split_bufferIP7ProcessRNS_9allocatorIS2_EEE17__destruct_at_endB7v160006EPS2_NS_17integral_constantIbLb0EEE, symObjAddr: 0xD2B0, symBinAddr: 0x100015260, symSize: 0x94 }
  - { offsetInCU: 0x1852E, offset: 0x30D59, size: 0x8, addend: 0x0, symName: __ZNKSt3__114__split_bufferIP7ProcessRNS_9allocatorIS2_EEE9__end_capB7v160006Ev, symObjAddr: 0xD344, symBinAddr: 0x1000152F4, symSize: 0x28 }
  - { offsetInCU: 0x18554, offset: 0x30D7F, size: 0x8, addend: 0x0, symName: __ZNKSt3__117__compressed_pairIPP7ProcessRNS_9allocatorIS2_EEE5firstB7v160006Ev, symObjAddr: 0xD36C, symBinAddr: 0x10001531C, symSize: 0x24 }
  - { offsetInCU: 0x1857A, offset: 0x30DA5, size: 0x8, addend: 0x0, symName: __ZNSt3__15dequeIiNS_9allocatorIiEEE9push_backERKi, symObjAddr: 0xD3C0, symBinAddr: 0x100015340, symSize: 0xA0 }
  - { offsetInCU: 0x185C0, offset: 0x30DEB, size: 0x8, addend: 0x0, symName: __ZNKSt3__15dequeIiNS_9allocatorIiEEE12__back_spareB7v160006Ev, symObjAddr: 0xD460, symBinAddr: 0x1000153E0, symSize: 0x54 }
  - { offsetInCU: 0x185E6, offset: 0x30E11, size: 0x8, addend: 0x0, symName: __ZNSt3__15dequeIiNS_9allocatorIiEEE19__add_back_capacityEv, symObjAddr: 0xD4B4, symBinAddr: 0x100015434, symSize: 0x32C }
  - { offsetInCU: 0x1869E, offset: 0x30EC9, size: 0x8, addend: 0x0, symName: __ZNKSt3__15dequeIiNS_9allocatorIiEEE10__capacityB7v160006Ev, symObjAddr: 0xD814, symBinAddr: 0x100015760, symSize: 0x60 }
  - { offsetInCU: 0x186C4, offset: 0x30EEF, size: 0x8, addend: 0x0, symName: __ZNKSt3__15dequeIiNS_9allocatorIiEEE13__front_spareB7v160006Ev, symObjAddr: 0xD874, symBinAddr: 0x1000157C0, symSize: 0x18 }
  - { offsetInCU: 0x186EA, offset: 0x30F15, size: 0x8, addend: 0x0, symName: __ZNSt3__114__split_bufferIPiNS_9allocatorIS1_EEE9push_backB7v160006ERKS1_, symObjAddr: 0xD88C, symBinAddr: 0x1000157D8, symSize: 0x270 }
  - { offsetInCU: 0x18763, offset: 0x30F8E, size: 0x8, addend: 0x0, symName: __ZNKSt3__114__split_bufferIPiNS_9allocatorIS1_EEE12__back_spareB7v160006Ev, symObjAddr: 0xDAFC, symBinAddr: 0x100015A48, symSize: 0x40 }
  - { offsetInCU: 0x18789, offset: 0x30FB4, size: 0x8, addend: 0x0, symName: __ZNSt3__114__split_bufferIPiNS_9allocatorIS1_EEE9push_backEOS1_, symObjAddr: 0xDB3C, symBinAddr: 0x100015A88, symSize: 0x270 }
  - { offsetInCU: 0x18802, offset: 0x3102D, size: 0x8, addend: 0x0, symName: __ZNSt3__116allocator_traitsINS_9allocatorIiEEE8allocateB7v160006ERS2_m, symObjAddr: 0xDDAC, symBinAddr: 0x100015CF8, symSize: 0x2C }
  - { offsetInCU: 0x18835, offset: 0x31060, size: 0x8, addend: 0x0, symName: __ZNSt3__114__split_bufferIPiNS_9allocatorIS1_EEE10push_frontEOS1_, symObjAddr: 0xDDD8, symBinAddr: 0x100015D24, symSize: 0x26C }
  - { offsetInCU: 0x188AE, offset: 0x310D9, size: 0x8, addend: 0x0, symName: __ZNSt3__114__split_bufferIPiRNS_9allocatorIS1_EEEC1EmmS4_, symObjAddr: 0xE044, symBinAddr: 0x100015F90, symSize: 0x44 }
  - { offsetInCU: 0x18909, offset: 0x31134, size: 0x8, addend: 0x0, symName: __ZNSt3__122__allocator_destructorINS_9allocatorIiEEEC1B7v160006ERS2_m, symObjAddr: 0xE088, symBinAddr: 0x100015FD4, symSize: 0x3C }
  - { offsetInCU: 0x189BF, offset: 0x311EA, size: 0x8, addend: 0x0, symName: __ZNSt3__110unique_ptrIPiNS_22__allocator_destructorINS_9allocatorIiEEEEEC1B7v160006ILb1EvEES1_NS_16__dependent_typeINS_27__unique_ptr_deleter_sfinaeIS5_EEXT_EE20__good_rval_ref_typeE, symObjAddr: 0xE0C4, symBinAddr: 0x100016010, symSize: 0x3C }
  - { offsetInCU: 0x18A10, offset: 0x3123B, size: 0x8, addend: 0x0, symName: __ZNSt3__114__split_bufferIPiRNS_9allocatorIS1_EEE9push_backEOS1_, symObjAddr: 0xE100, symBinAddr: 0x10001604C, symSize: 0x270 }
  - { offsetInCU: 0x18A89, offset: 0x312B4, size: 0x8, addend: 0x0, symName: __ZNKSt3__110unique_ptrIPiNS_22__allocator_destructorINS_9allocatorIiEEEEE3getB7v160006Ev, symObjAddr: 0xE370, symBinAddr: 0x1000162BC, symSize: 0x28 }
  - { offsetInCU: 0x18AAF, offset: 0x312DA, size: 0x8, addend: 0x0, symName: __ZNSt3__110unique_ptrIPiNS_22__allocator_destructorINS_9allocatorIiEEEEE7releaseB7v160006Ev, symObjAddr: 0xE398, symBinAddr: 0x1000162E4, symSize: 0x44 }
  - { offsetInCU: 0x18AE4, offset: 0x3130F, size: 0x8, addend: 0x0, symName: __ZNSt3__114__split_bufferIPiRNS_9allocatorIS1_EEE10push_frontERKS1_, symObjAddr: 0xE3DC, symBinAddr: 0x100016328, symSize: 0x26C }
  - { offsetInCU: 0x18B5D, offset: 0x31388, size: 0x8, addend: 0x0, symName: __ZNSt3__114__split_bufferIPiNS_9allocatorIS1_EEE9__end_capB7v160006Ev, symObjAddr: 0xE684, symBinAddr: 0x1000165D0, symSize: 0x28 }
  - { offsetInCU: 0x18B83, offset: 0x313AE, size: 0x8, addend: 0x0, symName: __ZNSt3__114__split_bufferIPiRNS_9allocatorIS1_EEE9__end_capB7v160006Ev, symObjAddr: 0xE6AC, symBinAddr: 0x1000165F8, symSize: 0x28 }
  - { offsetInCU: 0x18BA9, offset: 0x313D4, size: 0x8, addend: 0x0, symName: __ZNSt3__110unique_ptrIPiNS_22__allocator_destructorINS_9allocatorIiEEEEED1B7v160006Ev, symObjAddr: 0xE6D4, symBinAddr: 0x100016620, symSize: 0x2C }
  - { offsetInCU: 0x18BD3, offset: 0x313FE, size: 0x8, addend: 0x0, symName: __ZNSt3__114__split_bufferIPiRNS_9allocatorIS1_EEED1Ev, symObjAddr: 0xE700, symBinAddr: 0x10001664C, symSize: 0x2C }
  - { offsetInCU: 0x18BFF, offset: 0x3142A, size: 0x8, addend: 0x0, symName: __ZNSt3__114__split_bufferIPiRNS_9allocatorIS1_EEE18__construct_at_endINS_13move_iteratorIPS1_EEEENS_9enable_ifIXsr27__is_cpp17_forward_iteratorIT_EE5valueEvE4typeESB_SB_, symObjAddr: 0xE76C, symBinAddr: 0x1000166B8, symSize: 0x104 }
  - { offsetInCU: 0x18C5B, offset: 0x31486, size: 0x8, addend: 0x0, symName: __ZNSt3__113move_iteratorIPPiEC1B7v160006ES2_, symObjAddr: 0xE870, symBinAddr: 0x1000167BC, symSize: 0x34 }
  - { offsetInCU: 0x18C93, offset: 0x314BE, size: 0x8, addend: 0x0, symName: __ZNSt3__116allocator_traitsINS_9allocatorIPiEEE9constructB7v160006IS2_JRKS2_EvEEvRS3_PT_DpOT0_, symObjAddr: 0xE8A4, symBinAddr: 0x1000167F0, symSize: 0x34 }
  - { offsetInCU: 0x18D04, offset: 0x3152F, size: 0x8, addend: 0x0, symName: __ZNKSt3__114__move_trivialclB7v160006IPiS2_Li0EEENS_4pairIPT_PT0_EES5_S5_S7_, symObjAddr: 0xEA84, symBinAddr: 0x1000169D0, symSize: 0x48 }
  - { offsetInCU: 0x18D6C, offset: 0x31597, size: 0x8, addend: 0x0, symName: __ZNSt3__14pairIPPiS2_EC1B7v160006ERKS2_S5_, symObjAddr: 0xEC60, symBinAddr: 0x100016BAC, symSize: 0x3C }
  - { offsetInCU: 0x18DB2, offset: 0x315DD, size: 0x8, addend: 0x0, symName: __ZNSt3__14pairIPPiS2_EC2B7v160006ERKS2_S5_, symObjAddr: 0xEC9C, symBinAddr: 0x100016BE8, symSize: 0x34 }
  - { offsetInCU: 0x18DF8, offset: 0x31623, size: 0x8, addend: 0x0, symName: __ZNSt3__118__unwrap_iter_implIPPiLb1EE8__unwrapB7v160006ES2_, symObjAddr: 0xECD0, symBinAddr: 0x100016C1C, symSize: 0x24 }
  - { offsetInCU: 0x18E1B, offset: 0x31646, size: 0x8, addend: 0x0, symName: __ZNSt3__118__unwrap_iter_implIPPiLb1EE8__rewrapB7v160006ES2_S2_, symObjAddr: 0xECF4, symBinAddr: 0x100016C40, symSize: 0x50 }
  - { offsetInCU: 0x18E56, offset: 0x31681, size: 0x8, addend: 0x0, symName: __ZNSt3__114__split_bufferIPiRNS_9allocatorIS1_EEE21_ConstructTransactionC1B7v160006EPPS1_m, symObjAddr: 0xED80, symBinAddr: 0x100016CCC, symSize: 0x3C }
  - { offsetInCU: 0x18E9C, offset: 0x316C7, size: 0x8, addend: 0x0, symName: __ZNSt3__116allocator_traitsINS_9allocatorIPiEEE9constructB7v160006IS2_JS2_EvEEvRS3_PT_DpOT0_, symObjAddr: 0xEDBC, symBinAddr: 0x100016D08, symSize: 0x34 }
  - { offsetInCU: 0x18EF3, offset: 0x3171E, size: 0x8, addend: 0x0, symName: __ZNSt3__114__split_bufferIPiRNS_9allocatorIS1_EEE7__allocB7v160006Ev, symObjAddr: 0xEDF0, symBinAddr: 0x100016D3C, symSize: 0x28 }
  - { offsetInCU: 0x18F19, offset: 0x31744, size: 0x8, addend: 0x0, symName: __ZNKSt3__113move_iteratorIPPiEdeB7v160006Ev, symObjAddr: 0xEE18, symBinAddr: 0x100016D64, symSize: 0x18 }
  - { offsetInCU: 0x18F3F, offset: 0x3176A, size: 0x8, addend: 0x0, symName: __ZNSt3__113move_iteratorIPPiEppB7v160006Ev, symObjAddr: 0xEE30, symBinAddr: 0x100016D7C, symSize: 0x20 }
  - { offsetInCU: 0x18F65, offset: 0x31790, size: 0x8, addend: 0x0, symName: __ZNSt3__114__split_bufferIPiRNS_9allocatorIS1_EEE21_ConstructTransactionD1B7v160006Ev, symObjAddr: 0xEE50, symBinAddr: 0x100016D9C, symSize: 0x2C }
  - { offsetInCU: 0x18F8F, offset: 0x317BA, size: 0x8, addend: 0x0, symName: __ZNKSt3__113move_iteratorIPPiE4baseB7v160006Ev, symObjAddr: 0xEEF4, symBinAddr: 0x100016E40, symSize: 0x18 }
  - { offsetInCU: 0x18FB5, offset: 0x317E0, size: 0x8, addend: 0x0, symName: __ZNSt3__114__split_bufferIPiRNS_9allocatorIS1_EEE21_ConstructTransactionC2B7v160006EPPS1_m, symObjAddr: 0xEF0C, symBinAddr: 0x100016E58, symSize: 0x44 }
  - { offsetInCU: 0x18FFB, offset: 0x31826, size: 0x8, addend: 0x0, symName: __ZNSt3__19allocatorIPiE9constructB7v160006IS1_JS1_EEEvPT_DpOT0_, symObjAddr: 0xEF50, symBinAddr: 0x100016E9C, symSize: 0x28 }
  - { offsetInCU: 0x19051, offset: 0x3187C, size: 0x8, addend: 0x0, symName: __ZNSt3__117__compressed_pairIPPiRNS_9allocatorIS1_EEE6secondB7v160006Ev, symObjAddr: 0xEF78, symBinAddr: 0x100016EC4, symSize: 0x28 }
  - { offsetInCU: 0x19077, offset: 0x318A2, size: 0x8, addend: 0x0, symName: __ZNSt3__122__compressed_pair_elemIRNS_9allocatorIPiEELi1ELb0EE5__getB7v160006Ev, symObjAddr: 0xEFA0, symBinAddr: 0x100016EEC, symSize: 0x18 }
  - { offsetInCU: 0x1909D, offset: 0x318C8, size: 0x8, addend: 0x0, symName: __ZNSt3__114__split_bufferIPiRNS_9allocatorIS1_EEE21_ConstructTransactionD2B7v160006Ev, symObjAddr: 0xEFB8, symBinAddr: 0x100016F04, symSize: 0x20 }
  - { offsetInCU: 0x190C7, offset: 0x318F2, size: 0x8, addend: 0x0, symName: __ZNSt3__113move_iteratorIPPiEC2B7v160006ES2_, symObjAddr: 0xEFD8, symBinAddr: 0x100016F24, symSize: 0x20 }
  - { offsetInCU: 0x190FF, offset: 0x3192A, size: 0x8, addend: 0x0, symName: __ZNSt3__19allocatorIPiE9constructB7v160006IS1_JRKS1_EEEvPT_DpOT0_, symObjAddr: 0xEFF8, symBinAddr: 0x100016F44, symSize: 0x28 }
  - { offsetInCU: 0x19155, offset: 0x31980, size: 0x8, addend: 0x0, symName: __ZNKSt3__123__move_backward_trivialclB7v160006IPiS2_Li0EEENS_4pairIPT_PT0_EES5_S5_S7_, symObjAddr: 0xF1AC, symBinAddr: 0x1000170F8, symSize: 0x48 }
  - { offsetInCU: 0x191BD, offset: 0x319E8, size: 0x8, addend: 0x0, symName: __ZNSt3__114__split_bufferIPiRNS_9allocatorIS1_EEEC2EmmS4_, symObjAddr: 0xF2C0, symBinAddr: 0x10001720C, symSize: 0xD4 }
  - { offsetInCU: 0x19231, offset: 0x31A5C, size: 0x8, addend: 0x0, symName: __ZNSt3__117__compressed_pairIPPiRNS_9allocatorIS1_EEEC1B7v160006IDnS5_EEOT_OT0_, symObjAddr: 0xF394, symBinAddr: 0x1000172E0, symSize: 0x3C }
  - { offsetInCU: 0x19289, offset: 0x31AB4, size: 0x8, addend: 0x0, symName: __ZNSt3__117__compressed_pairIPPiRNS_9allocatorIS1_EEEC2B7v160006IDnS5_EEOT_OT0_, symObjAddr: 0xF410, symBinAddr: 0x10001735C, symSize: 0x48 }
  - { offsetInCU: 0x192E1, offset: 0x31B0C, size: 0x8, addend: 0x0, symName: __ZNSt3__122__compressed_pair_elemIRNS_9allocatorIPiEELi1ELb0EEC2B7v160006IS4_vEEOT_, symObjAddr: 0xF458, symBinAddr: 0x1000173A4, symSize: 0x20 }
  - { offsetInCU: 0x19323, offset: 0x31B4E, size: 0x8, addend: 0x0, symName: __ZNSt3__19allocatorIPiE8allocateB7v160006Em, symObjAddr: 0xF478, symBinAddr: 0x1000173C4, symSize: 0x84 }
  - { offsetInCU: 0x19361, offset: 0x31B8C, size: 0x8, addend: 0x0, symName: __ZNSt3__116allocator_traitsINS_9allocatorIPiEEE8max_sizeB7v160006IS3_vEEmRKS3_, symObjAddr: 0xF4FC, symBinAddr: 0x100017448, symSize: 0x24 }
  - { offsetInCU: 0x1938F, offset: 0x31BBA, size: 0x8, addend: 0x0, symName: __ZNKSt3__19allocatorIPiE8max_sizeB7v160006Ev, symObjAddr: 0xF520, symBinAddr: 0x10001746C, symSize: 0x14 }
  - { offsetInCU: 0x193B5, offset: 0x31BE0, size: 0x8, addend: 0x0, symName: __ZNSt3__122__allocator_destructorINS_9allocatorIiEEEC2B7v160006ERS2_m, symObjAddr: 0xF534, symBinAddr: 0x100017480, symSize: 0x2C }
  - { offsetInCU: 0x193FB, offset: 0x31C26, size: 0x8, addend: 0x0, symName: __ZNSt3__110unique_ptrIPiNS_22__allocator_destructorINS_9allocatorIiEEEEEC2B7v160006ILb1EvEES1_NS_16__dependent_typeINS_27__unique_ptr_deleter_sfinaeIS5_EEXT_EE20__good_rval_ref_typeE, symObjAddr: 0xF560, symBinAddr: 0x1000174AC, symSize: 0x5C }
  - { offsetInCU: 0x1944C, offset: 0x31C77, size: 0x8, addend: 0x0, symName: __ZNSt3__117__compressed_pairIPiNS_22__allocator_destructorINS_9allocatorIiEEEEEC1B7v160006IRS1_S5_EEOT_OT0_, symObjAddr: 0xF5BC, symBinAddr: 0x100017508, symSize: 0x3C }
  - { offsetInCU: 0x194A4, offset: 0x31CCF, size: 0x8, addend: 0x0, symName: __ZNSt3__117__compressed_pairIPiNS_22__allocator_destructorINS_9allocatorIiEEEEEC2B7v160006IRS1_S5_EEOT_OT0_, symObjAddr: 0xF5F8, symBinAddr: 0x100017544, symSize: 0x48 }
  - { offsetInCU: 0x194FC, offset: 0x31D27, size: 0x8, addend: 0x0, symName: __ZNSt3__122__compressed_pair_elemIPiLi0ELb0EEC2B7v160006IRS1_vEEOT_, symObjAddr: 0xF640, symBinAddr: 0x10001758C, symSize: 0x24 }
  - { offsetInCU: 0x1953E, offset: 0x31D69, size: 0x8, addend: 0x0, symName: __ZNSt3__122__compressed_pair_elemINS_22__allocator_destructorINS_9allocatorIiEEEELi1ELb0EEC2B7v160006IS4_vEEOT_, symObjAddr: 0xF664, symBinAddr: 0x1000175B0, symSize: 0x24 }
  - { offsetInCU: 0x19580, offset: 0x31DAB, size: 0x8, addend: 0x0, symName: __ZNKSt3__117__compressed_pairIPiNS_22__allocator_destructorINS_9allocatorIiEEEEE5firstB7v160006Ev, symObjAddr: 0xF688, symBinAddr: 0x1000175D4, symSize: 0x24 }
  - { offsetInCU: 0x195A6, offset: 0x31DD1, size: 0x8, addend: 0x0, symName: __ZNSt3__117__compressed_pairIPiNS_22__allocator_destructorINS_9allocatorIiEEEEE5firstB7v160006Ev, symObjAddr: 0xF6AC, symBinAddr: 0x1000175F8, symSize: 0x24 }
  - { offsetInCU: 0x195CC, offset: 0x31DF7, size: 0x8, addend: 0x0, symName: __ZNSt3__117__compressed_pairIPPiNS_9allocatorIS1_EEE5firstB7v160006Ev, symObjAddr: 0xF6D0, symBinAddr: 0x10001761C, symSize: 0x24 }
  - { offsetInCU: 0x195F2, offset: 0x31E1D, size: 0x8, addend: 0x0, symName: __ZNSt3__122__compressed_pair_elemIPPiLi0ELb0EE5__getB7v160006Ev, symObjAddr: 0xF6F4, symBinAddr: 0x100017640, symSize: 0x14 }
  - { offsetInCU: 0x19618, offset: 0x31E43, size: 0x8, addend: 0x0, symName: __ZNSt3__117__compressed_pairIPPiRNS_9allocatorIS1_EEE5firstB7v160006Ev, symObjAddr: 0xF708, symBinAddr: 0x100017654, symSize: 0x24 }
  - { offsetInCU: 0x1963E, offset: 0x31E69, size: 0x8, addend: 0x0, symName: __ZNSt3__110unique_ptrIPiNS_22__allocator_destructorINS_9allocatorIiEEEEED2B7v160006Ev, symObjAddr: 0xF72C, symBinAddr: 0x100017678, symSize: 0x30 }
  - { offsetInCU: 0x19668, offset: 0x31E93, size: 0x8, addend: 0x0, symName: __ZNSt3__110unique_ptrIPiNS_22__allocator_destructorINS_9allocatorIiEEEEE5resetB7v160006ES1_, symObjAddr: 0xF75C, symBinAddr: 0x1000176A8, symSize: 0x78 }
  - { offsetInCU: 0x196AC, offset: 0x31ED7, size: 0x8, addend: 0x0, symName: __ZNSt3__117__compressed_pairIPiNS_22__allocator_destructorINS_9allocatorIiEEEEE6secondB7v160006Ev, symObjAddr: 0xF7D4, symBinAddr: 0x100017720, symSize: 0x28 }
  - { offsetInCU: 0x196D2, offset: 0x31EFD, size: 0x8, addend: 0x0, symName: __ZNSt3__122__allocator_destructorINS_9allocatorIiEEEclB7v160006EPi, symObjAddr: 0xF7FC, symBinAddr: 0x100017748, symSize: 0x34 }
  - { offsetInCU: 0x19706, offset: 0x31F31, size: 0x8, addend: 0x0, symName: __ZNSt3__122__compressed_pair_elemINS_22__allocator_destructorINS_9allocatorIiEEEELi1ELb0EE5__getB7v160006Ev, symObjAddr: 0xF830, symBinAddr: 0x10001777C, symSize: 0x14 }
  - { offsetInCU: 0x1972C, offset: 0x31F57, size: 0x8, addend: 0x0, symName: __ZNSt3__114__split_bufferIPiRNS_9allocatorIS1_EEED2Ev, symObjAddr: 0xF844, symBinAddr: 0x100017790, symSize: 0x80 }
  - { offsetInCU: 0x19758, offset: 0x31F83, size: 0x8, addend: 0x0, symName: __ZNSt3__114__split_bufferIPiRNS_9allocatorIS1_EEE5clearB7v160006Ev, symObjAddr: 0xF8C4, symBinAddr: 0x100017810, symSize: 0x28 }
  - { offsetInCU: 0x1977E, offset: 0x31FA9, size: 0x8, addend: 0x0, symName: __ZNKSt3__114__split_bufferIPiRNS_9allocatorIS1_EEE8capacityB7v160006Ev, symObjAddr: 0xF8EC, symBinAddr: 0x100017838, symSize: 0x40 }
  - { offsetInCU: 0x197A4, offset: 0x31FCF, size: 0x8, addend: 0x0, symName: __ZNSt3__114__split_bufferIPiRNS_9allocatorIS1_EEE17__destruct_at_endB7v160006EPS1_, symObjAddr: 0xF92C, symBinAddr: 0x100017878, symSize: 0x2C }
  - { offsetInCU: 0x197D8, offset: 0x32003, size: 0x8, addend: 0x0, symName: __ZNSt3__114__split_bufferIPiRNS_9allocatorIS1_EEE17__destruct_at_endB7v160006EPS1_NS_17integral_constantIbLb0EEE, symObjAddr: 0xF958, symBinAddr: 0x1000178A4, symSize: 0x94 }
  - { offsetInCU: 0x19819, offset: 0x32044, size: 0x8, addend: 0x0, symName: __ZNKSt3__114__split_bufferIPiRNS_9allocatorIS1_EEE9__end_capB7v160006Ev, symObjAddr: 0xF9EC, symBinAddr: 0x100017938, symSize: 0x28 }
  - { offsetInCU: 0x1983F, offset: 0x3206A, size: 0x8, addend: 0x0, symName: __ZNKSt3__117__compressed_pairIPPiRNS_9allocatorIS1_EEE5firstB7v160006Ev, symObjAddr: 0xFA14, symBinAddr: 0x100017960, symSize: 0x24 }
  - { offsetInCU: 0x1986F, offset: 0x3209A, size: 0x8, addend: 0x0, symName: __ZNSt3__116allocator_traitsINS_9allocatorIcEEE37select_on_container_copy_constructionB7v160006IS2_vvEES2_RKS2_, symObjAddr: 0xFA60, symBinAddr: 0x100017984, symSize: 0x10 }
  - { offsetInCU: 0x1989E, offset: 0x320C9, size: 0x8, addend: 0x0, symName: __ZNKSt3__112basic_stringIcNS_11char_traitsIcEENS_9allocatorIcEEE13get_allocatorB7v160006Ev, symObjAddr: 0xFA70, symBinAddr: 0x100017994, symSize: 0x24 }
  - { offsetInCU: 0x198C4, offset: 0x320EF, size: 0x8, addend: 0x0, symName: __ZNSt3__112basic_stringIcNS_11char_traitsIcEENS_9allocatorIcEEEC1B7v160006ENS_24__uninitialized_size_tagEmRKS4_, symObjAddr: 0xFA94, symBinAddr: 0x1000179B8, symSize: 0x3C }
  - { offsetInCU: 0x19917, offset: 0x32142, size: 0x8, addend: 0x0, symName: __ZNSt3__112basic_stringIcNS_11char_traitsIcEENS_9allocatorIcEEE13__get_pointerB7v160006Ev, symObjAddr: 0xFAE4, symBinAddr: 0x100017A08, symSize: 0x54 }
  - { offsetInCU: 0x1993D, offset: 0x32168, size: 0x8, addend: 0x0, symName: __ZNSt3__111char_traitsIcE4copyEPcPKcm, symObjAddr: 0xFB38, symBinAddr: 0x100017A5C, symSize: 0x80 }
  - { offsetInCU: 0x1997C, offset: 0x321A7, size: 0x8, addend: 0x0, symName: __ZNSt3__111char_traitsIcE6assignEPcmc, symObjAddr: 0xFBB8, symBinAddr: 0x100017ADC, symSize: 0x58 }
  - { offsetInCU: 0x199BB, offset: 0x321E6, size: 0x8, addend: 0x0, symName: __ZNKSt3__112basic_stringIcNS_11char_traitsIcEENS_9allocatorIcEEE7__allocB7v160006Ev, symObjAddr: 0xFC10, symBinAddr: 0x100017B34, symSize: 0x24 }
  - { offsetInCU: 0x199E1, offset: 0x3220C, size: 0x8, addend: 0x0, symName: __ZNKSt3__117__compressed_pairINS_12basic_stringIcNS_11char_traitsIcEENS_9allocatorIcEEE5__repES5_E6secondB7v160006Ev, symObjAddr: 0xFC34, symBinAddr: 0x100017B58, symSize: 0x24 }
  - { offsetInCU: 0x19A07, offset: 0x32232, size: 0x8, addend: 0x0, symName: __ZNKSt3__122__compressed_pair_elemINS_9allocatorIcEELi1ELb1EE5__getB7v160006Ev, symObjAddr: 0xFC58, symBinAddr: 0x100017B7C, symSize: 0x14 }
  - { offsetInCU: 0x19A2D, offset: 0x32258, size: 0x8, addend: 0x0, symName: __ZNSt3__112basic_stringIcNS_11char_traitsIcEENS_9allocatorIcEEEC2B7v160006ENS_24__uninitialized_size_tagEmRKS4_, symObjAddr: 0xFC6C, symBinAddr: 0x100017B90, symSize: 0x118 }
  - { offsetInCU: 0x19AAD, offset: 0x322D8, size: 0x8, addend: 0x0, symName: __ZNSt3__117__compressed_pairINS_12basic_stringIcNS_11char_traitsIcEENS_9allocatorIcEEE5__repES5_EC1B7v160006INS_18__default_init_tagERKS5_EEOT_OT0_, symObjAddr: 0xFD84, symBinAddr: 0x100017CA8, symSize: 0x3C }
  - { offsetInCU: 0x19B05, offset: 0x32330, size: 0x8, addend: 0x0, symName: __ZNKSt3__112basic_stringIcNS_11char_traitsIcEENS_9allocatorIcEEE8max_sizeB7v160006Ev, symObjAddr: 0xFDC0, symBinAddr: 0x100017CE4, symSize: 0xAC }
  - { offsetInCU: 0x19B58, offset: 0x32383, size: 0x8, addend: 0x0, symName: __ZNKSt3__112basic_stringIcNS_11char_traitsIcEENS_9allocatorIcEEE20__throw_length_errorB7v160006Ev, symObjAddr: 0xFE6C, symBinAddr: 0x100017D90, symSize: 0x1C }
  - { offsetInCU: 0x19B7E, offset: 0x323A9, size: 0x8, addend: 0x0, symName: __ZNSt3__112basic_stringIcNS_11char_traitsIcEENS_9allocatorIcEEE13__fits_in_ssoB7v160006Em, symObjAddr: 0xFE88, symBinAddr: 0x100017DAC, symSize: 0x4C }
  - { offsetInCU: 0x19BA2, offset: 0x323CD, size: 0x8, addend: 0x0, symName: __ZNSt3__117__compressed_pairINS_12basic_stringIcNS_11char_traitsIcEENS_9allocatorIcEEE5__repES5_E5firstB7v160006Ev, symObjAddr: 0xFED4, symBinAddr: 0x100017DF8, symSize: 0x24 }
  - { offsetInCU: 0x19BC8, offset: 0x323F3, size: 0x8, addend: 0x0, symName: __ZNSt3__112basic_stringIcNS_11char_traitsIcEENS_9allocatorIcEEE16__set_short_sizeB7v160006Em, symObjAddr: 0xFEF8, symBinAddr: 0x100017E1C, symSize: 0x78 }
  - { offsetInCU: 0x19BFD, offset: 0x32428, size: 0x8, addend: 0x0, symName: __ZNSt3__112basic_stringIcNS_11char_traitsIcEENS_9allocatorIcEEE11__recommendB7v160006Em, symObjAddr: 0xFF70, symBinAddr: 0x100017E94, symSize: 0x9C }
  - { offsetInCU: 0x19C30, offset: 0x3245B, size: 0x8, addend: 0x0, symName: __ZNSt3__116allocator_traitsINS_9allocatorIcEEE8allocateB7v160006ERS2_m, symObjAddr: 0x1000C, symBinAddr: 0x100017F30, symSize: 0x2C }
  - { offsetInCU: 0x19C63, offset: 0x3248E, size: 0x8, addend: 0x0, symName: __ZNSt3__112basic_stringIcNS_11char_traitsIcEENS_9allocatorIcEEE7__allocB7v160006Ev, symObjAddr: 0x10038, symBinAddr: 0x100017F5C, symSize: 0x24 }
  - { offsetInCU: 0x19C89, offset: 0x324B4, size: 0x8, addend: 0x0, symName: __ZNSt3__112basic_stringIcNS_11char_traitsIcEENS_9allocatorIcEEE16__begin_lifetimeB7v160006EPcm, symObjAddr: 0x1005C, symBinAddr: 0x100017F80, symSize: 0x14 }
  - { offsetInCU: 0x19CBC, offset: 0x324E7, size: 0x8, addend: 0x0, symName: __ZNSt3__112basic_stringIcNS_11char_traitsIcEENS_9allocatorIcEEE14__set_long_capB7v160006Em, symObjAddr: 0x10070, symBinAddr: 0x100017F94, symSize: 0x70 }
  - { offsetInCU: 0x19CF1, offset: 0x3251C, size: 0x8, addend: 0x0, symName: __ZNSt3__112basic_stringIcNS_11char_traitsIcEENS_9allocatorIcEEE18__set_long_pointerB7v160006EPc, symObjAddr: 0x100E0, symBinAddr: 0x100018004, symSize: 0x38 }
  - { offsetInCU: 0x19D26, offset: 0x32551, size: 0x8, addend: 0x0, symName: __ZNSt3__112basic_stringIcNS_11char_traitsIcEENS_9allocatorIcEEE15__set_long_sizeB7v160006Em, symObjAddr: 0x10118, symBinAddr: 0x10001803C, symSize: 0x38 }
  - { offsetInCU: 0x19D5B, offset: 0x32586, size: 0x8, addend: 0x0, symName: __ZNSt3__117__compressed_pairINS_12basic_stringIcNS_11char_traitsIcEENS_9allocatorIcEEE5__repES5_EC2B7v160006INS_18__default_init_tagERKS5_EEOT_OT0_, symObjAddr: 0x10150, symBinAddr: 0x100018074, symSize: 0x40 }
  - { offsetInCU: 0x19DB3, offset: 0x325DE, size: 0x8, addend: 0x0, symName: __ZNSt3__122__compressed_pair_elemINS_9allocatorIcEELi1ELb1EEC2B7v160006IRKS2_vEEOT_, symObjAddr: 0x10190, symBinAddr: 0x1000180B4, symSize: 0x18 }
  - { offsetInCU: 0x19DF5, offset: 0x32620, size: 0x8, addend: 0x0, symName: __ZNSt3__116allocator_traitsINS_9allocatorIcEEE8max_sizeB7v160006IS2_vEEmRKS2_, symObjAddr: 0x101A8, symBinAddr: 0x1000180CC, symSize: 0x24 }
  - { offsetInCU: 0x19E23, offset: 0x3264E, size: 0x8, addend: 0x0, symName: __ZNSt3__114numeric_limitsImE3maxB7v160006Ev, symObjAddr: 0x101CC, symBinAddr: 0x1000180F0, symSize: 0x14 }
  - { offsetInCU: 0x19E37, offset: 0x32662, size: 0x8, addend: 0x0, symName: __ZNKSt3__19allocatorIcE8max_sizeB7v160006Ev, symObjAddr: 0x101E0, symBinAddr: 0x100018104, symSize: 0x14 }
  - { offsetInCU: 0x19E5D, offset: 0x32688, size: 0x8, addend: 0x0, symName: __ZNSt3__123__libcpp_numeric_limitsImLb1EE3maxB7v160006Ev, symObjAddr: 0x101F4, symBinAddr: 0x100018118, symSize: 0x8 }
  - { offsetInCU: 0x19E71, offset: 0x3269C, size: 0x8, addend: 0x0, symName: __ZNSt3__122__compressed_pair_elemINS_12basic_stringIcNS_11char_traitsIcEENS_9allocatorIcEEE5__repELi0ELb0EE5__getB7v160006Ev, symObjAddr: 0x101FC, symBinAddr: 0x100018120, symSize: 0x14 }
  - { offsetInCU: 0x19E97, offset: 0x326C2, size: 0x8, addend: 0x0, symName: __ZNSt3__112basic_stringIcNS_11char_traitsIcEENS_9allocatorIcEEE10__align_itB7v160006ILm16EEEmm, symObjAddr: 0x10210, symBinAddr: 0x100018134, symSize: 0x1C }
  - { offsetInCU: 0x19EC5, offset: 0x326F0, size: 0x8, addend: 0x0, symName: __ZNSt3__19allocatorIcE8allocateB7v160006Em, symObjAddr: 0x1022C, symBinAddr: 0x100018150, symSize: 0x84 }
  - { offsetInCU: 0x19EF9, offset: 0x32724, size: 0x8, addend: 0x0, symName: __ZNSt3__117__compressed_pairINS_12basic_stringIcNS_11char_traitsIcEENS_9allocatorIcEEE5__repES5_E6secondB7v160006Ev, symObjAddr: 0x102B0, symBinAddr: 0x1000181D4, symSize: 0x24 }
  - { offsetInCU: 0x19F1F, offset: 0x3274A, size: 0x8, addend: 0x0, symName: __ZNSt3__122__compressed_pair_elemINS_9allocatorIcEELi1ELb1EE5__getB7v160006Ev, symObjAddr: 0x102D4, symBinAddr: 0x1000181F8, symSize: 0x14 }
  - { offsetInCU: 0x19F45, offset: 0x32770, size: 0x8, addend: 0x0, symName: __ZNSt3__112basic_stringIcNS_11char_traitsIcEENS_9allocatorIcEEE18__get_long_pointerB7v160006Ev, symObjAddr: 0x102E8, symBinAddr: 0x10001820C, symSize: 0x28 }
  - { offsetInCU: 0x19F6B, offset: 0x32796, size: 0x8, addend: 0x0, symName: __ZNSt3__112basic_stringIcNS_11char_traitsIcEENS_9allocatorIcEEE19__get_short_pointerB7v160006Ev, symObjAddr: 0x10310, symBinAddr: 0x100018234, symSize: 0x28 }
  - { offsetInCU: 0x19F91, offset: 0x327BC, size: 0x8, addend: 0x0, symName: __ZNSt3__114pointer_traitsIPcE10pointer_toB7v160006ERc, symObjAddr: 0x10338, symBinAddr: 0x10001825C, symSize: 0x14 }
  - { offsetInCU: 0x19FE2, offset: 0x3280D, size: 0x8, addend: 0x0, symName: __ZNKSt3__114__copy_trivialclB7v160006IKccLi0EEENS_4pairIPT_PT0_EES5_S5_S7_, symObjAddr: 0x1057C, symBinAddr: 0x1000184A0, symSize: 0x48 }
  - { offsetInCU: 0x1A064, offset: 0x3288F, size: 0x8, addend: 0x0, symName: __ZNSt3__14pairIPKcS2_EC1B7v160006ERKS2_S5_, symObjAddr: 0x106F8, symBinAddr: 0x10001861C, symSize: 0x3C }
  - { offsetInCU: 0x1A0AA, offset: 0x328D5, size: 0x8, addend: 0x0, symName: __ZNSt3__14pairIPKcS2_EC2B7v160006ERKS2_S5_, symObjAddr: 0x10734, symBinAddr: 0x100018658, symSize: 0x34 }
  - { offsetInCU: 0x1A0F0, offset: 0x3291B, size: 0x8, addend: 0x0, symName: __ZNSt3__118__unwrap_iter_implIPKcLb1EE8__unwrapB7v160006ES2_, symObjAddr: 0x10768, symBinAddr: 0x10001868C, symSize: 0x24 }
  - { offsetInCU: 0x1A113, offset: 0x3293E, size: 0x8, addend: 0x0, symName: __ZNSt3__14pairIPKcPcEC1B7v160006ERKS2_RKS3_, symObjAddr: 0x10840, symBinAddr: 0x100018764, symSize: 0x3C }
  - { offsetInCU: 0x1A159, offset: 0x32984, size: 0x8, addend: 0x0, symName: __ZNSt3__14pairIPKcPcEC2B7v160006ERKS2_RKS3_, symObjAddr: 0x1087C, symBinAddr: 0x1000187A0, symSize: 0x34 }
  - { offsetInCU: 0x1A19F, offset: 0x329CA, size: 0x8, addend: 0x0, symName: __ZNSt3__118__unwrap_iter_implIPcLb1EE8__unwrapB7v160006ES1_, symObjAddr: 0x108B0, symBinAddr: 0x1000187D4, symSize: 0x24 }
  - { offsetInCU: 0x1A1C2, offset: 0x329ED, size: 0x8, addend: 0x0, symName: __ZNSt3__118__unwrap_iter_implIPKcLb1EE8__rewrapB7v160006ES2_S2_, symObjAddr: 0x10924, symBinAddr: 0x100018848, symSize: 0x48 }
  - { offsetInCU: 0x1A1F3, offset: 0x32A1E, size: 0x8, addend: 0x0, symName: __ZNSt3__118__unwrap_iter_implIPcLb1EE8__rewrapB7v160006ES1_S1_, symObjAddr: 0x1096C, symBinAddr: 0x100018890, symSize: 0x48 }
  - { offsetInCU: 0x1A224, offset: 0x32A4F, size: 0x8, addend: 0x0, symName: __ZNKSt3__15dequeI7ProcessNS_9allocatorIS1_EEE5emptyB7v160006Ev, symObjAddr: 0x10A5C, symBinAddr: 0x100018980, symSize: 0x30 }
  - { offsetInCU: 0x1A24A, offset: 0x32A75, size: 0x8, addend: 0x0, symName: __ZNSt3__15dequeIiNS_9allocatorIiEEE5frontEv, symObjAddr: 0x10A8C, symBinAddr: 0x1000189B0, symSize: 0x50 }
  - { offsetInCU: 0x1A272, offset: 0x32A9D, size: 0x8, addend: 0x0, symName: __ZNSt3__15dequeI7ProcessNS_9allocatorIS1_EEE5frontEv, symObjAddr: 0x10ADC, symBinAddr: 0x100018A00, symSize: 0x58 }
  - { offsetInCU: 0x1A29A, offset: 0x32AC5, size: 0x8, addend: 0x0, symName: __ZNSt3__15dequeI7ProcessNS_9allocatorIS1_EEE9pop_frontEv, symObjAddr: 0x10B34, symBinAddr: 0x100018A58, symSize: 0xB4 }
  - { offsetInCU: 0x1A2D1, offset: 0x32AFC, size: 0x8, addend: 0x0, symName: __ZNSt3__15dequeI7ProcessNS_9allocatorIS1_EEE26__maybe_remove_front_spareB7v160006Eb, symObjAddr: 0x10BE8, symBinAddr: 0x100018B0C, symSize: 0xDC }
  - { offsetInCU: 0x1A306, offset: 0x32B31, size: 0x8, addend: 0x0, symName: __ZNKSt3__15dequeI7ProcessNS_9allocatorIS1_EEE20__front_spare_blocksB7v160006Ev, symObjAddr: 0x10CC4, symBinAddr: 0x100018BE8, symSize: 0x2C }
  - { offsetInCU: 0x1A32C, offset: 0x32B57, size: 0x8, addend: 0x0, symName: __ZNSt3__15dequeIiNS_9allocatorIiEEE9pop_frontEv, symObjAddr: 0x10CF0, symBinAddr: 0x100018C14, symSize: 0xAC }
  - { offsetInCU: 0x1A363, offset: 0x32B8E, size: 0x8, addend: 0x0, symName: __ZNSt3__15dequeIiNS_9allocatorIiEEE26__maybe_remove_front_spareB7v160006Eb, symObjAddr: 0x10D9C, symBinAddr: 0x100018CC0, symSize: 0xDC }
  - { offsetInCU: 0x1A398, offset: 0x32BC3, size: 0x8, addend: 0x0, symName: __ZNKSt3__15dequeIiNS_9allocatorIiEEE20__front_spare_blocksB7v160006Ev, symObjAddr: 0x10E78, symBinAddr: 0x100018D9C, symSize: 0x2C }
  - { offsetInCU: 0x1A3BE, offset: 0x32BE9, size: 0x8, addend: 0x0, symName: __ZNSt3__16vectorIiNS_9allocatorIiEEE11__make_iterB7v160006EPi, symObjAddr: 0x10EA4, symBinAddr: 0x100018DC8, symSize: 0x34 }
  - { offsetInCU: 0x1A3F3, offset: 0x32C1E, size: 0x8, addend: 0x0, symName: __ZNSt3__111__wrap_iterIPiEC1B7v160006EPKvS1_, symObjAddr: 0x10ED8, symBinAddr: 0x100018DFC, symSize: 0x3C }
  - { offsetInCU: 0x1A439, offset: 0x32C64, size: 0x8, addend: 0x0, symName: __ZNSt3__111__wrap_iterIPiEC2B7v160006EPKvS1_, symObjAddr: 0x10F14, symBinAddr: 0x100018E38, symSize: 0x24 }
  - { offsetInCU: 0x1A47F, offset: 0x32CAA, size: 0x8, addend: 0x0, symName: __ZNKSt3__16vectorIiNS_9allocatorIiEEE6cbeginB7v160006Ev, symObjAddr: 0x10F80, symBinAddr: 0x100018EA4, symSize: 0x2C }
  - { offsetInCU: 0x1A4A5, offset: 0x32CD0, size: 0x8, addend: 0x0, symName: __ZNKSt3__111__wrap_iterIPKiE4baseB7v160006Ev, symObjAddr: 0x10FEC, symBinAddr: 0x100018F10, symSize: 0x18 }
  - { offsetInCU: 0x1A4CB, offset: 0x32CF6, size: 0x8, addend: 0x0, symName: __ZNKSt3__16vectorIiNS_9allocatorIiEEE5beginB7v160006Ev, symObjAddr: 0x11004, symBinAddr: 0x100018F28, symSize: 0x30 }
  - { offsetInCU: 0x1A4F3, offset: 0x32D1E, size: 0x8, addend: 0x0, symName: __ZNKSt3__16vectorIiNS_9allocatorIiEEE11__make_iterB7v160006EPKi, symObjAddr: 0x11034, symBinAddr: 0x100018F58, symSize: 0x34 }
  - { offsetInCU: 0x1A528, offset: 0x32D53, size: 0x8, addend: 0x0, symName: __ZNSt3__111__wrap_iterIPKiEC1B7v160006EPKvS2_, symObjAddr: 0x11068, symBinAddr: 0x100018F8C, symSize: 0x3C }
  - { offsetInCU: 0x1A56E, offset: 0x32D99, size: 0x8, addend: 0x0, symName: __ZNSt3__111__wrap_iterIPKiEC2B7v160006EPKvS2_, symObjAddr: 0x110A4, symBinAddr: 0x100018FC8, symSize: 0x24 }
  - { offsetInCU: 0x1A5B4, offset: 0x32DDF, size: 0x8, addend: 0x0, symName: __ZNKSt3__114__move_trivialclB7v160006IiiLi0EEENS_4pairIPT_PT0_EES4_S4_S6_, symObjAddr: 0x11214, symBinAddr: 0x100019138, symSize: 0x48 }
  - { offsetInCU: 0x1A61C, offset: 0x32E47, size: 0x8, addend: 0x0, symName: __ZNSt3__111__wrap_iterIPKiEC2B7v160006IPiEERKNS0_IT_EEPNS_9enable_ifIXsr14is_convertibleIS6_S2_EE5valueEvE4typeE, symObjAddr: 0x1125C, symBinAddr: 0x100019180, symSize: 0x40 }
  - { offsetInCU: 0x1A668, offset: 0x32E93, size: 0x8, addend: 0x0, symName: __ZNKSt3__111__wrap_iterIPiE4baseB7v160006Ev, symObjAddr: 0x1129C, symBinAddr: 0x1000191C0, symSize: 0x18 }
  - { offsetInCU: 0x1A68E, offset: 0x32EB9, size: 0x8, addend: 0x0, symName: __ZNSt3__16__treeINS_12__value_typeIi7ProcessEENS_19__map_value_compareIiS3_NS_4lessIiEELb1EEENS_9allocatorIS3_EEE12__find_equalIiEERPNS_16__tree_node_baseIPvEERPNS_15__tree_end_nodeISF_EERKT_, symObjAddr: 0x112B4, symBinAddr: 0x1000191D8, symSize: 0x184 }
  - { offsetInCU: 0x1A6FB, offset: 0x32F26, size: 0x8, addend: 0x0, symName: __ZNSt3__13mapIi7ProcessNS_4lessIiEENS_9allocatorINS_4pairIKiS1_EEEEE25__construct_node_with_keyERS6_, symObjAddr: 0x11438, symBinAddr: 0x10001935C, symSize: 0x144 }
  - { offsetInCU: 0x1A751, offset: 0x32F7C, size: 0x8, addend: 0x0, symName: __ZNSt3__16__treeINS_12__value_typeIi7ProcessEENS_19__map_value_compareIiS3_NS_4lessIiEELb1EEENS_9allocatorIS3_EEE16__insert_node_atEPNS_15__tree_end_nodeIPNS_16__tree_node_baseIPvEEEERSF_SF_, symObjAddr: 0x1157C, symBinAddr: 0x1000194A0, symSize: 0xCC }
  - { offsetInCU: 0x1A7A6, offset: 0x32FD1, size: 0x8, addend: 0x0, symName: __ZNKSt3__110unique_ptrINS_11__tree_nodeINS_12__value_typeIi7ProcessEEPvEENS_21__map_node_destructorINS_9allocatorIS6_EEEEE3getB7v160006Ev, symObjAddr: 0x11648, symBinAddr: 0x10001956C, symSize: 0x28 }
  - { offsetInCU: 0x1A7CC, offset: 0x32FF7, size: 0x8, addend: 0x0, symName: __ZNSt3__110unique_ptrINS_11__tree_nodeINS_12__value_typeIi7ProcessEEPvEENS_21__map_node_destructorINS_9allocatorIS6_EEEEE7releaseB7v160006Ev, symObjAddr: 0x11670, symBinAddr: 0x100019594, symSize: 0x44 }
  - { offsetInCU: 0x1A801, offset: 0x3302C, size: 0x8, addend: 0x0, symName: __ZNSt3__110unique_ptrINS_11__tree_nodeINS_12__value_typeIi7ProcessEEPvEENS_21__map_node_destructorINS_9allocatorIS6_EEEEED1B7v160006Ev, symObjAddr: 0x116B4, symBinAddr: 0x1000195D8, symSize: 0x2C }
  - { offsetInCU: 0x1A82B, offset: 0x33056, size: 0x8, addend: 0x0, symName: __ZNKSt3__16__treeINS_12__value_typeIi7ProcessEENS_19__map_value_compareIiS3_NS_4lessIiEELb1EEENS_9allocatorIS3_EEE10__root_ptrEv, symObjAddr: 0x116E0, symBinAddr: 0x100019604, symSize: 0x24 }
  - { offsetInCU: 0x1A851, offset: 0x3307C, size: 0x8, addend: 0x0, symName: __ZNSt3__16__treeINS_12__value_typeIi7ProcessEENS_19__map_value_compareIiS3_NS_4lessIiEELb1EEENS_9allocatorIS3_EEE10value_compB7v160006Ev, symObjAddr: 0x11704, symBinAddr: 0x100019628, symSize: 0x28 }
  - { offsetInCU: 0x1A877, offset: 0x330A2, size: 0x8, addend: 0x0, symName: __ZNKSt3__119__map_value_compareIiNS_12__value_typeIi7ProcessEENS_4lessIiEELb1EEclB7v160006ERKiRKS3_, symObjAddr: 0x1172C, symBinAddr: 0x100019650, symSize: 0x50 }
  - { offsetInCU: 0x1A8BB, offset: 0x330E6, size: 0x8, addend: 0x0, symName: __ZNKSt3__119__map_value_compareIiNS_12__value_typeIi7ProcessEENS_4lessIiEELb1EEclB7v160006ERKS3_RKi, symObjAddr: 0x1177C, symBinAddr: 0x1000196A0, symSize: 0x48 }
  - { offsetInCU: 0x1A8FF, offset: 0x3312A, size: 0x8, addend: 0x0, symName: __ZNSt3__117__compressed_pairImNS_19__map_value_compareIiNS_12__value_typeIi7ProcessEENS_4lessIiEELb1EEEE6secondB7v160006Ev, symObjAddr: 0x117C4, symBinAddr: 0x1000196E8, symSize: 0x24 }
  - { offsetInCU: 0x1A925, offset: 0x33150, size: 0x8, addend: 0x0, symName: __ZNSt3__122__compressed_pair_elemINS_19__map_value_compareIiNS_12__value_typeIi7ProcessEENS_4lessIiEELb1EEELi1ELb1EE5__getB7v160006Ev, symObjAddr: 0x117E8, symBinAddr: 0x10001970C, symSize: 0x14 }
  - { offsetInCU: 0x1A94B, offset: 0x33176, size: 0x8, addend: 0x0, symName: __ZNKSt3__14lessIiEclB7v160006ERKiS3_, symObjAddr: 0x117FC, symBinAddr: 0x100019720, symSize: 0x34 }
  - { offsetInCU: 0x1A98F, offset: 0x331BA, size: 0x8, addend: 0x0, symName: __ZNKSt3__112__value_typeIi7ProcessE11__get_valueB7v160006Ev, symObjAddr: 0x11830, symBinAddr: 0x100019754, symSize: 0x14 }
  - { offsetInCU: 0x1A9B5, offset: 0x331E0, size: 0x8, addend: 0x0, symName: __ZNSt3__116allocator_traitsINS_9allocatorINS_11__tree_nodeINS_12__value_typeIi7ProcessEEPvEEEEE8allocateB7v160006ERS8_m, symObjAddr: 0x11844, symBinAddr: 0x100019768, symSize: 0x2C }
  - { offsetInCU: 0x1A9E8, offset: 0x33213, size: 0x8, addend: 0x0, symName: __ZNSt3__121__map_node_destructorINS_9allocatorINS_11__tree_nodeINS_12__value_typeIi7ProcessEEPvEEEEEC1B7v160006ERS8_, symObjAddr: 0x11870, symBinAddr: 0x100019794, symSize: 0x34 }
  - { offsetInCU: 0x1AA27, offset: 0x33252, size: 0x8, addend: 0x0, symName: __ZNSt3__110unique_ptrINS_11__tree_nodeINS_12__value_typeIi7ProcessEEPvEENS_21__map_node_destructorINS_9allocatorIS6_EEEEEC1B7v160006ILb1EvEEPS6_NS_16__dependent_typeINS_27__unique_ptr_deleter_sfinaeISA_EEXT_EE20__good_rval_ref_typeE, symObjAddr: 0x118A4, symBinAddr: 0x1000197C8, symSize: 0x3C }
  - { offsetInCU: 0x1AA78, offset: 0x332A3, size: 0x8, addend: 0x0, symName: __ZNSt3__116allocator_traitsINS_9allocatorINS_11__tree_nodeINS_12__value_typeIi7ProcessEEPvEEEEE9constructB7v160006IKiJRSB_EvEEvRS8_PT_DpOT0_, symObjAddr: 0x118E0, symBinAddr: 0x100019804, symSize: 0x34 }
  - { offsetInCU: 0x1AACF, offset: 0x332FA, size: 0x8, addend: 0x0, symName: __ZNKSt3__110unique_ptrINS_11__tree_nodeINS_12__value_typeIi7ProcessEEPvEENS_21__map_node_destructorINS_9allocatorIS6_EEEEEptB7v160006Ev, symObjAddr: 0x11914, symBinAddr: 0x100019838, symSize: 0x28 }
  - { offsetInCU: 0x1AAF5, offset: 0x33320, size: 0x8, addend: 0x0, symName: __ZNSt3__110unique_ptrINS_11__tree_nodeINS_12__value_typeIi7ProcessEEPvEENS_21__map_node_destructorINS_9allocatorIS6_EEEEE11get_deleterB7v160006Ev, symObjAddr: 0x1193C, symBinAddr: 0x100019860, symSize: 0x24 }
  - { offsetInCU: 0x1AB1B, offset: 0x33346, size: 0x8, addend: 0x0, symName: __ZNSt3__116allocator_traitsINS_9allocatorINS_11__tree_nodeINS_12__value_typeIi7ProcessEEPvEEEEE9constructB7v160006IS4_JEvEEvRS8_PT_DpOT0_, symObjAddr: 0x11960, symBinAddr: 0x100019884, symSize: 0x2C }
  - { offsetInCU: 0x1AB5D, offset: 0x33388, size: 0x8, addend: 0x0, symName: __ZNSt3__19allocatorINS_11__tree_nodeINS_12__value_typeIi7ProcessEEPvEEE8allocateB7v160006Em, symObjAddr: 0x1198C, symBinAddr: 0x1000198B0, symSize: 0x8C }
  - { offsetInCU: 0x1AB9B, offset: 0x333C6, size: 0x8, addend: 0x0, symName: __ZNSt3__116allocator_traitsINS_9allocatorINS_11__tree_nodeINS_12__value_typeIi7ProcessEEPvEEEEE8max_sizeB7v160006IS8_vEEmRKS8_, symObjAddr: 0x11A18, symBinAddr: 0x10001993C, symSize: 0x24 }
  - { offsetInCU: 0x1ABC9, offset: 0x333F4, size: 0x8, addend: 0x0, symName: __ZNKSt3__19allocatorINS_11__tree_nodeINS_12__value_typeIi7ProcessEEPvEEE8max_sizeB7v160006Ev, symObjAddr: 0x11A3C, symBinAddr: 0x100019960, symSize: 0x18 }
  - { offsetInCU: 0x1ABEF, offset: 0x3341A, size: 0x8, addend: 0x0, symName: __ZNSt3__121__map_node_destructorINS_9allocatorINS_11__tree_nodeINS_12__value_typeIi7ProcessEEPvEEEEEC2B7v160006ERS8_, symObjAddr: 0x11A54, symBinAddr: 0x100019978, symSize: 0x28 }
  - { offsetInCU: 0x1AC28, offset: 0x33453, size: 0x8, addend: 0x0, symName: __ZNSt3__110unique_ptrINS_11__tree_nodeINS_12__value_typeIi7ProcessEEPvEENS_21__map_node_destructorINS_9allocatorIS6_EEEEEC2B7v160006ILb1EvEEPS6_NS_16__dependent_typeINS_27__unique_ptr_deleter_sfinaeISA_EEXT_EE20__good_rval_ref_typeE, symObjAddr: 0x11A7C, symBinAddr: 0x1000199A0, symSize: 0x5C }
  - { offsetInCU: 0x1AC79, offset: 0x334A4, size: 0x8, addend: 0x0, symName: __ZNSt3__117__compressed_pairIPNS_11__tree_nodeINS_12__value_typeIi7ProcessEEPvEENS_21__map_node_destructorINS_9allocatorIS6_EEEEEC1B7v160006IRS7_SB_EEOT_OT0_, symObjAddr: 0x11AD8, symBinAddr: 0x1000199FC, symSize: 0x3C }
  - { offsetInCU: 0x1ACD1, offset: 0x334FC, size: 0x8, addend: 0x0, symName: __ZNSt3__117__compressed_pairIPNS_11__tree_nodeINS_12__value_typeIi7ProcessEEPvEENS_21__map_node_destructorINS_9allocatorIS6_EEEEEC2B7v160006IRS7_SB_EEOT_OT0_, symObjAddr: 0x11B14, symBinAddr: 0x100019A38, symSize: 0x48 }
  - { offsetInCU: 0x1AD29, offset: 0x33554, size: 0x8, addend: 0x0, symName: __ZNSt3__122__compressed_pair_elemIPNS_11__tree_nodeINS_12__value_typeIi7ProcessEEPvEELi0ELb0EEC2B7v160006IRS7_vEEOT_, symObjAddr: 0x11B5C, symBinAddr: 0x100019A80, symSize: 0x24 }
  - { offsetInCU: 0x1AD6B, offset: 0x33596, size: 0x8, addend: 0x0, symName: __ZNSt3__122__compressed_pair_elemINS_21__map_node_destructorINS_9allocatorINS_11__tree_nodeINS_12__value_typeIi7ProcessEEPvEEEEEELi1ELb0EEC2B7v160006ISA_vEEOT_, symObjAddr: 0x11B80, symBinAddr: 0x100019AA4, symSize: 0x24 }
  - { offsetInCU: 0x1ADAD, offset: 0x335D8, size: 0x8, addend: 0x0, symName: __ZNSt3__19allocatorINS_11__tree_nodeINS_12__value_typeIi7ProcessEEPvEEE9constructB7v160006IKiJRS9_EEEvPT_DpOT0_, symObjAddr: 0x11BA4, symBinAddr: 0x100019AC8, symSize: 0x28 }
  - { offsetInCU: 0x1AE03, offset: 0x3362E, size: 0x8, addend: 0x0, symName: __ZNKSt3__117__compressed_pairIPNS_11__tree_nodeINS_12__value_typeIi7ProcessEEPvEENS_21__map_node_destructorINS_9allocatorIS6_EEEEE5firstB7v160006Ev, symObjAddr: 0x11BCC, symBinAddr: 0x100019AF0, symSize: 0x24 }
  - { offsetInCU: 0x1AE29, offset: 0x33654, size: 0x8, addend: 0x0, symName: __ZNKSt3__122__compressed_pair_elemIPNS_11__tree_nodeINS_12__value_typeIi7ProcessEEPvEELi0ELb0EE5__getB7v160006Ev, symObjAddr: 0x11BF0, symBinAddr: 0x100019B14, symSize: 0x14 }
  - { offsetInCU: 0x1AE4F, offset: 0x3367A, size: 0x8, addend: 0x0, symName: __ZNSt3__117__compressed_pairIPNS_11__tree_nodeINS_12__value_typeIi7ProcessEEPvEENS_21__map_node_destructorINS_9allocatorIS6_EEEEE6secondB7v160006Ev, symObjAddr: 0x11C04, symBinAddr: 0x100019B28, symSize: 0x28 }
  - { offsetInCU: 0x1AE75, offset: 0x336A0, size: 0x8, addend: 0x0, symName: __ZNSt3__122__compressed_pair_elemINS_21__map_node_destructorINS_9allocatorINS_11__tree_nodeINS_12__value_typeIi7ProcessEEPvEEEEEELi1ELb0EE5__getB7v160006Ev, symObjAddr: 0x11C2C, symBinAddr: 0x100019B50, symSize: 0x14 }
  - { offsetInCU: 0x1AE9B, offset: 0x336C6, size: 0x8, addend: 0x0, symName: __ZNSt3__19allocatorINS_11__tree_nodeINS_12__value_typeIi7ProcessEEPvEEE9constructB7v160006IS3_JEEEvPT_DpOT0_, symObjAddr: 0x11C40, symBinAddr: 0x100019B64, symSize: 0x28 }
  - { offsetInCU: 0x1AEDD, offset: 0x33708, size: 0x8, addend: 0x0, symName: __ZNSt3__16__treeINS_12__value_typeIi7ProcessEENS_19__map_value_compareIiS3_NS_4lessIiEELb1EEENS_9allocatorIS3_EEE4sizeB7v160006Ev, symObjAddr: 0x11FA8, symBinAddr: 0x100019ECC, symSize: 0x28 }
  - { offsetInCU: 0x1AF03, offset: 0x3372E, size: 0x8, addend: 0x0, symName: __ZNKSt3__116__tree_node_baseIPvE15__parent_unsafeB7v160006Ev, symObjAddr: 0x11FD0, symBinAddr: 0x100019EF4, symSize: 0x18 }
  - { offsetInCU: 0x1AF29, offset: 0x33754, size: 0x8, addend: 0x0, symName: __ZNSt3__116__tree_node_baseIPvE12__set_parentB7v160006EPS2_, symObjAddr: 0x121CC, symBinAddr: 0x10001A0F0, symSize: 0x20 }
  - { offsetInCU: 0x1AF5E, offset: 0x33789, size: 0x8, addend: 0x0, symName: __ZNSt3__117__compressed_pairImNS_19__map_value_compareIiNS_12__value_typeIi7ProcessEENS_4lessIiEELb1EEEE5firstB7v160006Ev, symObjAddr: 0x121EC, symBinAddr: 0x10001A110, symSize: 0x24 }
  - { offsetInCU: 0x1AF84, offset: 0x337AF, size: 0x8, addend: 0x0, symName: __ZNSt3__117__compressed_pairIPNS_11__tree_nodeINS_12__value_typeIi7ProcessEEPvEENS_21__map_node_destructorINS_9allocatorIS6_EEEEE5firstB7v160006Ev, symObjAddr: 0x12210, symBinAddr: 0x10001A134, symSize: 0x24 }
  - { offsetInCU: 0x1AFAA, offset: 0x337D5, size: 0x8, addend: 0x0, symName: __ZNSt3__122__compressed_pair_elemIPNS_11__tree_nodeINS_12__value_typeIi7ProcessEEPvEELi0ELb0EE5__getB7v160006Ev, symObjAddr: 0x12234, symBinAddr: 0x10001A158, symSize: 0x14 }
  - { offsetInCU: 0x1AFD0, offset: 0x337FB, size: 0x8, addend: 0x0, symName: __ZNSt3__110unique_ptrINS_11__tree_nodeINS_12__value_typeIi7ProcessEEPvEENS_21__map_node_destructorINS_9allocatorIS6_EEEEED2B7v160006Ev, symObjAddr: 0x12248, symBinAddr: 0x10001A16C, symSize: 0x30 }
  - { offsetInCU: 0x1AFFA, offset: 0x33825, size: 0x8, addend: 0x0, symName: __ZNSt3__110unique_ptrINS_11__tree_nodeINS_12__value_typeIi7ProcessEEPvEENS_21__map_node_destructorINS_9allocatorIS6_EEEEE5resetB7v160006EPS6_, symObjAddr: 0x12278, symBinAddr: 0x10001A19C, symSize: 0x78 }
  - { offsetInCU: 0x1B03E, offset: 0x33869, size: 0x8, addend: 0x0, symName: __ZNSt3__121__map_node_destructorINS_9allocatorINS_11__tree_nodeINS_12__value_typeIi7ProcessEEPvEEEEEclB7v160006EPS7_, symObjAddr: 0x122F0, symBinAddr: 0x10001A214, symSize: 0xE4 }
  - { offsetInCU: 0x1B073, offset: 0x3389E, size: 0x8, addend: 0x0, symName: __ZNSt3__116allocator_traitsINS_9allocatorINS_11__tree_nodeINS_12__value_typeIi7ProcessEEPvEEEEE7destroyB7v160006IS4_vvEEvRS8_PT_, symObjAddr: 0x123D4, symBinAddr: 0x10001A2F8, symSize: 0x28 }
  - { offsetInCU: 0x1B0AD, offset: 0x338D8, size: 0x8, addend: 0x0, symName: __ZNSt3__116allocator_traitsINS_9allocatorINS_11__tree_nodeINS_12__value_typeIi7ProcessEEPvEEEEE7destroyB7v160006IKivvEEvRS8_PT_, symObjAddr: 0x123FC, symBinAddr: 0x10001A320, symSize: 0x14 }
  - { offsetInCU: 0x1B0E7, offset: 0x33912, size: 0x8, addend: 0x0, symName: __ZNSt3__16vectorIiNS_9allocatorIiEEE3endB7v160006Ev, symObjAddr: 0x124BC, symBinAddr: 0x10001A374, symSize: 0x30 }
  - { offsetInCU: 0x1B10F, offset: 0x3393A, size: 0x8, addend: 0x0, symName: __ZNKSt3__111__wrap_iterIPiEplB7v160006El, symObjAddr: 0x1355C, symBinAddr: 0x10001A5B0, symSize: 0x3C }
  - { offsetInCU: 0x1B151, offset: 0x3397C, size: 0x8, addend: 0x0, symName: __ZNKSt3__17greaterIiEclB7v160006ERKiS3_, symObjAddr: 0x13598, symBinAddr: 0x10001A5EC, symSize: 0x34 }
  - { offsetInCU: 0x1B195, offset: 0x339C0, size: 0x8, addend: 0x0, symName: __ZNKSt3__111__wrap_iterIPiEdeB7v160006Ev, symObjAddr: 0x135CC, symBinAddr: 0x10001A620, symSize: 0x18 }
  - { offsetInCU: 0x1B1BB, offset: 0x339E6, size: 0x8, addend: 0x0, symName: __ZNSt3__111__wrap_iterIPiEmmB7v160006Ev, symObjAddr: 0x135E4, symBinAddr: 0x10001A638, symSize: 0x20 }
  - { offsetInCU: 0x1B1E1, offset: 0x33A0C, size: 0x8, addend: 0x0, symName: __ZNSt3__18_IterOpsINS_17_ClassicAlgPolicyEE11__iter_moveB7v160006IRNS_11__wrap_iterIPiEEEENS_9enable_ifIXsr12is_referenceIDTdeclsr3stdE7declvalIRT_EEEEE5valueEDTclsr3stdE4movedeclsr3stdE7declvalISA_EEEEE4typeEOS9_, symObjAddr: 0x13604, symBinAddr: 0x10001A658, symSize: 0x28 }
  - { offsetInCU: 0x1B20D, offset: 0x33A38, size: 0x8, addend: 0x0, symName: __ZNSt3__111__wrap_iterIPiEpLB7v160006El, symObjAddr: 0x1362C, symBinAddr: 0x10001A680, symSize: 0x28 }
  - { offsetInCU: 0x1B241, offset: 0x33A6C, size: 0x8, addend: 0x0, symName: __ZNSt3__18_IterOpsINS_17_ClassicAlgPolicyEE25__validate_iter_referenceB7v160006IRNS_11__wrap_iterIPiEEEEvv, symObjAddr: 0x13654, symBinAddr: 0x10001A6A8, symSize: 0x4 }
  - { offsetInCU: 0x1B25F, offset: 0x33A8A, size: 0x8, addend: 0x0, symName: __ZNSt3__16__treeINS_12__value_typeIi7ProcessEENS_19__map_value_compareIiS3_NS_4lessIiEELb1EEENS_9allocatorIS3_EEE14__erase_uniqueIiEEmRKT_, symObjAddr: 0x13658, symBinAddr: 0x10001A6AC, symSize: 0xA0 }
  - { offsetInCU: 0x1B2AE, offset: 0x33AD9, size: 0x8, addend: 0x0, symName: __ZNSt3__16__treeINS_12__value_typeIi7ProcessEENS_19__map_value_compareIiS3_NS_4lessIiEELb1EEENS_9allocatorIS3_EEE4findIiEENS_15__tree_iteratorIS3_PNS_11__tree_nodeIS3_PvEElEERKT_, symObjAddr: 0x136F8, symBinAddr: 0x10001A74C, symSize: 0xF8 }
  - { offsetInCU: 0x1B2FD, offset: 0x33B28, size: 0x8, addend: 0x0, symName: __ZNSt3__16__treeINS_12__value_typeIi7ProcessEENS_19__map_value_compareIiS3_NS_4lessIiEELb1EEENS_9allocatorIS3_EEE3endB7v160006Ev, symObjAddr: 0x13820, symBinAddr: 0x10001A874, symSize: 0x34 }
  - { offsetInCU: 0x1B323, offset: 0x33B4E, size: 0x8, addend: 0x0, symName: __ZNSt3__16__treeINS_12__value_typeIi7ProcessEENS_19__map_value_compareIiS3_NS_4lessIiEELb1EEENS_9allocatorIS3_EEE5eraseENS_21__tree_const_iteratorIS3_PNS_11__tree_nodeIS3_PvEElEE, symObjAddr: 0x13854, symBinAddr: 0x10001A8A8, symSize: 0x98 }
  - { offsetInCU: 0x1B387, offset: 0x33BB2, size: 0x8, addend: 0x0, symName: __ZNSt3__121__tree_const_iteratorINS_12__value_typeIi7ProcessEEPNS_11__tree_nodeIS3_PvEElEC1B7v160006ENS_15__tree_iteratorIS3_S7_lEE, symObjAddr: 0x138EC, symBinAddr: 0x10001A940, symSize: 0x34 }
  - { offsetInCU: 0x1B3C0, offset: 0x33BEB, size: 0x8, addend: 0x0, symName: __ZNSt3__16__treeINS_12__value_typeIi7ProcessEENS_19__map_value_compareIiS3_NS_4lessIiEELb1EEENS_9allocatorIS3_EEE13__lower_boundIiEENS_15__tree_iteratorIS3_PNS_11__tree_nodeIS3_PvEElEERKT_SG_PNS_15__tree_end_nodeIPNS_16__tree_node_baseISE_EEEE, symObjAddr: 0x13920, symBinAddr: 0x10001A974, symSize: 0xA4 }
  - { offsetInCU: 0x1B41E, offset: 0x33C49, size: 0x8, addend: 0x0, symName: __ZNKSt3__115__tree_iteratorINS_12__value_typeIi7ProcessEEPNS_11__tree_nodeIS3_PvEElEdeB7v160006Ev, symObjAddr: 0x139F8, symBinAddr: 0x10001AA4C, symSize: 0x28 }
  - { offsetInCU: 0x1B444, offset: 0x33C6F, size: 0x8, addend: 0x0, symName: __ZNSt3__115__tree_iteratorINS_12__value_typeIi7ProcessEEPNS_11__tree_nodeIS3_PvEElEC1B7v160006EPNS_15__tree_end_nodeIPNS_16__tree_node_baseIS5_EEEE, symObjAddr: 0x13A20, symBinAddr: 0x10001AA74, symSize: 0x34 }
  - { offsetInCU: 0x1B47D, offset: 0x33CA8, size: 0x8, addend: 0x0, symName: __ZNSt3__115__tree_iteratorINS_12__value_typeIi7ProcessEEPNS_11__tree_nodeIS3_PvEElEC2B7v160006EPNS_15__tree_end_nodeIPNS_16__tree_node_baseIS5_EEEE, symObjAddr: 0x13A54, symBinAddr: 0x10001AAA8, symSize: 0x20 }
  - { offsetInCU: 0x1B4B6, offset: 0x33CE1, size: 0x8, addend: 0x0, symName: __ZNKSt3__115__tree_iteratorINS_12__value_typeIi7ProcessEEPNS_11__tree_nodeIS3_PvEElE8__get_npB7v160006Ev, symObjAddr: 0x13A74, symBinAddr: 0x10001AAC8, symSize: 0x18 }
  - { offsetInCU: 0x1B4DC, offset: 0x33D07, size: 0x8, addend: 0x0, symName: __ZNKSt3__121__tree_const_iteratorINS_12__value_typeIi7ProcessEEPNS_11__tree_nodeIS3_PvEElE8__get_npB7v160006Ev, symObjAddr: 0x13A8C, symBinAddr: 0x10001AAE0, symSize: 0x18 }
  - { offsetInCU: 0x1B502, offset: 0x33D2D, size: 0x8, addend: 0x0, symName: __ZNSt3__16__treeINS_12__value_typeIi7ProcessEENS_19__map_value_compareIiS3_NS_4lessIiEELb1EEENS_9allocatorIS3_EEE21__remove_node_pointerEPNS_11__tree_nodeIS3_PvEE, symObjAddr: 0x13AA4, symBinAddr: 0x10001AAF8, symSize: 0xC8 }
  - { offsetInCU: 0x1B548, offset: 0x33D73, size: 0x8, addend: 0x0, symName: __ZNKSt3__121__tree_const_iteratorINS_12__value_typeIi7ProcessEEPNS_11__tree_nodeIS3_PvEElEdeB7v160006Ev, symObjAddr: 0x13B6C, symBinAddr: 0x10001ABC0, symSize: 0x28 }
  - { offsetInCU: 0x1B56E, offset: 0x33D99, size: 0x8, addend: 0x0, symName: __ZNSt3__115__tree_iteratorINS_12__value_typeIi7ProcessEEPNS_11__tree_nodeIS3_PvEElEC1B7v160006ES7_, symObjAddr: 0x13B94, symBinAddr: 0x10001ABE8, symSize: 0x34 }
  - { offsetInCU: 0x1B5A7, offset: 0x33DD2, size: 0x8, addend: 0x0, symName: __ZNSt3__115__tree_iteratorINS_12__value_typeIi7ProcessEEPNS_11__tree_nodeIS3_PvEElEppB7v160006Ev, symObjAddr: 0x13BC8, symBinAddr: 0x10001AC1C, symSize: 0x38 }
  - { offsetInCU: 0x1B5CD, offset: 0x33DF8, size: 0x8, addend: 0x0, symName: __ZNSt3__115__tree_iteratorINS_12__value_typeIi7ProcessEEPNS_11__tree_nodeIS3_PvEElEC2B7v160006ES7_, symObjAddr: 0x142E0, symBinAddr: 0x10001B334, symSize: 0x20 }
  - { offsetInCU: 0x1B606, offset: 0x33E31, size: 0x8, addend: 0x0, symName: __ZNSt3__121__tree_const_iteratorINS_12__value_typeIi7ProcessEEPNS_11__tree_nodeIS3_PvEElEC2B7v160006ENS_15__tree_iteratorIS3_S7_lEE, symObjAddr: 0x14440, symBinAddr: 0x10001B494, symSize: 0x20 }
  - { offsetInCU: 0x1B63F, offset: 0x33E6A, size: 0x8, addend: 0x0, symName: __ZNSt3__16vectorIiNS_9allocatorIiEEE8pop_backEv, symObjAddr: 0x144B8, symBinAddr: 0x10001B50C, symSize: 0x2C }
  - { offsetInCU: 0x1B667, offset: 0x33E92, size: 0x8, addend: 0x0, symName: __ZNSt3__111__wrap_iterIPiEppB7v160006Ev, symObjAddr: 0x147BC, symBinAddr: 0x10001B810, symSize: 0x20 }
  - { offsetInCU: 0x1B68D, offset: 0x33EB8, size: 0x8, addend: 0x0, symName: __ZNSt3__15queueI7ProcessNS_5dequeIS1_NS_9allocatorIS1_EEEEEC2B7v160006ERKS6_, symObjAddr: 0x147DC, symBinAddr: 0x10001B830, symSize: 0x34 }
  - { offsetInCU: 0x1B6C6, offset: 0x33EF1, size: 0x8, addend: 0x0, symName: __ZNSt3__15dequeI7ProcessNS_9allocatorIS1_EEEC1ERKS4_, symObjAddr: 0x14810, symBinAddr: 0x10001B864, symSize: 0x34 }
  - { offsetInCU: 0x1B701, offset: 0x33F2C, size: 0x8, addend: 0x0, symName: __ZNSt3__15dequeI7ProcessNS_9allocatorIS1_EEEC2ERKS4_, symObjAddr: 0x14844, symBinAddr: 0x10001B898, symSize: 0xF4 }
  - { offsetInCU: 0x1B73C, offset: 0x33F67, size: 0x8, addend: 0x0, symName: __ZNKSt3__15dequeI7ProcessNS_9allocatorIS1_EEE7__allocB7v160006Ev, symObjAddr: 0x14948, symBinAddr: 0x10001B98C, symSize: 0x28 }
  - { offsetInCU: 0x1B762, offset: 0x33F8D, size: 0x8, addend: 0x0, symName: __ZNSt3__19allocatorIP7ProcessEC1B7v160006IS1_EERKNS0_IT_EE, symObjAddr: 0x14970, symBinAddr: 0x10001B9B4, symSize: 0x34 }
  - { offsetInCU: 0x1B7A0, offset: 0x33FCB, size: 0x8, addend: 0x0, symName: __ZNSt3__114__split_bufferIP7ProcessNS_9allocatorIS2_EEEC1ERKS4_, symObjAddr: 0x149A4, symBinAddr: 0x10001B9E8, symSize: 0x34 }
  - { offsetInCU: 0x1B7DA, offset: 0x34005, size: 0x8, addend: 0x0, symName: __ZNSt3__117__compressed_pairImNS_9allocatorI7ProcessEEEC1B7v160006IiRNS1_IPS2_EEEEOT_OT0_, symObjAddr: 0x149D8, symBinAddr: 0x10001BA1C, symSize: 0x3C }
  - { offsetInCU: 0x1B832, offset: 0x3405D, size: 0x8, addend: 0x0, symName: __ZNSt3__15dequeI7ProcessNS_9allocatorIS1_EEE8__appendINS_16__deque_iteratorIS1_PKS1_RS7_PKS8_lLl51EEEEEvT_SD_PNS_9enable_ifIXsr27__is_cpp17_forward_iteratorISD_EE5valueEvE4typeE, symObjAddr: 0x14A14, symBinAddr: 0x10001BA58, symSize: 0x250 }
  - { offsetInCU: 0x1B921, offset: 0x3414C, size: 0x8, addend: 0x0, symName: __ZNKSt3__15dequeI7ProcessNS_9allocatorIS1_EEE5beginB7v160006Ev, symObjAddr: 0x14C64, symBinAddr: 0x10001BCA8, symSize: 0xB0 }
  - { offsetInCU: 0x1B956, offset: 0x34181, size: 0x8, addend: 0x0, symName: __ZNKSt3__15dequeI7ProcessNS_9allocatorIS1_EEE3endB7v160006Ev, symObjAddr: 0x14D14, symBinAddr: 0x10001BD58, symSize: 0xC4 }
  - { offsetInCU: 0x1B99A, offset: 0x341C5, size: 0x8, addend: 0x0, symName: __ZNKSt3__117__compressed_pairImNS_9allocatorI7ProcessEEE6secondB7v160006Ev, symObjAddr: 0x14DD8, symBinAddr: 0x10001BE1C, symSize: 0x24 }
  - { offsetInCU: 0x1B9C0, offset: 0x341EB, size: 0x8, addend: 0x0, symName: __ZNSt3__19allocatorIP7ProcessEC2B7v160006IS1_EERKNS0_IT_EE, symObjAddr: 0x14E10, symBinAddr: 0x10001BE40, symSize: 0x30 }
  - { offsetInCU: 0x1B9FE, offset: 0x34229, size: 0x8, addend: 0x0, symName: __ZNSt3__114__split_bufferIP7ProcessNS_9allocatorIS2_EEEC2ERKS4_, symObjAddr: 0x14E54, symBinAddr: 0x10001BE70, symSize: 0x4C }
  - { offsetInCU: 0x1BA38, offset: 0x34263, size: 0x8, addend: 0x0, symName: __ZNSt3__117__compressed_pairIPP7ProcessNS_9allocatorIS2_EEEC1B7v160006IDnRKS5_EEOT_OT0_, symObjAddr: 0x14EA0, symBinAddr: 0x10001BEBC, symSize: 0x3C }
  - { offsetInCU: 0x1BA90, offset: 0x342BB, size: 0x8, addend: 0x0, symName: __ZNSt3__117__compressed_pairIPP7ProcessNS_9allocatorIS2_EEEC2B7v160006IDnRKS5_EEOT_OT0_, symObjAddr: 0x14EDC, symBinAddr: 0x10001BEF8, symSize: 0x44 }
  - { offsetInCU: 0x1BAE8, offset: 0x34313, size: 0x8, addend: 0x0, symName: __ZNSt3__122__compressed_pair_elemINS_9allocatorIP7ProcessEELi1ELb1EEC2B7v160006IRKS4_vEEOT_, symObjAddr: 0x14F20, symBinAddr: 0x10001BF3C, symSize: 0x18 }
  - { offsetInCU: 0x1BB2A, offset: 0x34355, size: 0x8, addend: 0x0, symName: __ZNSt3__117__compressed_pairImNS_9allocatorI7ProcessEEEC2B7v160006IiRNS1_IPS2_EEEEOT_OT0_, symObjAddr: 0x14F38, symBinAddr: 0x10001BF54, symSize: 0x44 }
  - { offsetInCU: 0x1BB82, offset: 0x343AD, size: 0x8, addend: 0x0, symName: __ZNSt3__122__compressed_pair_elemINS_9allocatorI7ProcessEELi1ELb1EEC2B7v160006IRNS1_IPS2_EEvEEOT_, symObjAddr: 0x14F7C, symBinAddr: 0x10001BF98, symSize: 0x34 }
  - { offsetInCU: 0x1BBC4, offset: 0x343EF, size: 0x8, addend: 0x0, symName: __ZNSt3__19allocatorI7ProcessEC2B7v160006IPS1_EERKNS0_IT_EE, symObjAddr: 0x14FB0, symBinAddr: 0x10001BFCC, symSize: 0x30 }
  - { offsetInCU: 0x1BC02, offset: 0x3442D, size: 0x8, addend: 0x0, symName: __ZNSt3__15dequeI7ProcessNS_9allocatorIS1_EEE19__add_back_capacityEm, symObjAddr: 0x15040, symBinAddr: 0x10001C048, symSize: 0x5C0 }
  - { offsetInCU: 0x1BD07, offset: 0x34532, size: 0x8, addend: 0x0, symName: __ZNKSt3__116__deque_iteratorI7ProcessPS1_RS1_PS2_lLl51EEplB7v160006El, symObjAddr: 0x15600, symBinAddr: 0x10001C608, symSize: 0x40 }
  - { offsetInCU: 0x1BD6E, offset: 0x34599, size: 0x8, addend: 0x0, symName: __ZNSt3__15dequeI7ProcessNS_9allocatorIS1_EEE13__deque_rangeC1B7v160006ENS_16__deque_iteratorIS1_PS1_RS1_PS7_lLl51EEESA_, symObjAddr: 0x15640, symBinAddr: 0x10001C648, symSize: 0x4C }
  - { offsetInCU: 0x1BDB6, offset: 0x345E1, size: 0x8, addend: 0x0, symName: __ZNKSt3__15dequeI7ProcessNS_9allocatorIS1_EEE13__deque_range5beginB7v160006Ev, symObjAddr: 0x1568C, symBinAddr: 0x10001C694, symSize: 0x24 }
  - { offsetInCU: 0x1BDDC, offset: 0x34607, size: 0x8, addend: 0x0, symName: __ZNKSt3__15dequeI7ProcessNS_9allocatorIS1_EEE13__deque_range3endB7v160006Ev, symObjAddr: 0x156B0, symBinAddr: 0x10001C6B8, symSize: 0x50 }
  - { offsetInCU: 0x1BE02, offset: 0x3462D, size: 0x8, addend: 0x0, symName: __ZNKSt3__15dequeI7ProcessNS_9allocatorIS1_EEE13__deque_rangedeB7v160006Ev, symObjAddr: 0x15734, symBinAddr: 0x10001C73C, symSize: 0x7C }
  - { offsetInCU: 0x1BE3C, offset: 0x34667, size: 0x8, addend: 0x0, symName: __ZNSt3__15dequeI7ProcessNS_9allocatorIS1_EEE21_ConstructTransactionC1B7v160006EPS4_RNS4_19__deque_block_rangeE, symObjAddr: 0x157B0, symBinAddr: 0x10001C7B8, symSize: 0x3C }
  - { offsetInCU: 0x1BE84, offset: 0x346AF, size: 0x8, addend: 0x0, symName: __ZNKSt3__116__deque_iteratorI7ProcessPKS1_RS2_PKS3_lLl51EEdeB7v160006Ev, symObjAddr: 0x157EC, symBinAddr: 0x10001C7F4, symSize: 0x18 }
  - { offsetInCU: 0x1BEAA, offset: 0x346D5, size: 0x8, addend: 0x0, symName: __ZNSt3__116__deque_iteratorI7ProcessPKS1_RS2_PKS3_lLl51EEppB7v160006Ev, symObjAddr: 0x15804, symBinAddr: 0x10001C80C, symSize: 0x70 }
  - { offsetInCU: 0x1BED0, offset: 0x346FB, size: 0x8, addend: 0x0, symName: __ZNSt3__15dequeI7ProcessNS_9allocatorIS1_EEE21_ConstructTransactionD1B7v160006Ev, symObjAddr: 0x15874, symBinAddr: 0x10001C87C, symSize: 0x2C }
  - { offsetInCU: 0x1BEFA, offset: 0x34725, size: 0x8, addend: 0x0, symName: __ZNSt3__15dequeI7ProcessNS_9allocatorIS1_EEE13__deque_rangeppB7v160006Ev, symObjAddr: 0x158A0, symBinAddr: 0x10001C8A8, symSize: 0x64 }
  - { offsetInCU: 0x1BF20, offset: 0x3474B, size: 0x8, addend: 0x0, symName: __ZNSt3__15dequeI7ProcessNS_9allocatorIS1_EEE18__recommend_blocksB7v160006Em, symObjAddr: 0x15A50, symBinAddr: 0x10001CA58, symSize: 0x40 }
  - { offsetInCU: 0x1BF44, offset: 0x3476F, size: 0x8, addend: 0x0, symName: __ZNSt3__114__split_bufferIP7ProcessRNS_9allocatorIS2_EEE5beginB7v160006Ev, symObjAddr: 0x15A90, symBinAddr: 0x10001CA98, symSize: 0x18 }
  - { offsetInCU: 0x1BF6A, offset: 0x34795, size: 0x8, addend: 0x0, symName: __ZNSt3__114__split_bufferIP7ProcessRNS_9allocatorIS2_EEE3endB7v160006Ev, symObjAddr: 0x15AA8, symBinAddr: 0x10001CAB0, symSize: 0x18 }
  - { offsetInCU: 0x1BF90, offset: 0x347BB, size: 0x8, addend: 0x0, symName: __ZNSt3__114__split_bufferIP7ProcessRNS_9allocatorIS2_EEE9push_backB7v160006ERKS2_, symObjAddr: 0x15AC0, symBinAddr: 0x10001CAC8, symSize: 0x268 }
  - { offsetInCU: 0x1C009, offset: 0x34834, size: 0x8, addend: 0x0, symName: __ZNSt3__116__deque_iteratorI7ProcessPS1_RS1_PS2_lLl51EEpLB7v160006El, symObjAddr: 0x15D28, symBinAddr: 0x10001CD30, symSize: 0x120 }
  - { offsetInCU: 0x1C05C, offset: 0x34887, size: 0x8, addend: 0x0, symName: __ZNSt3__15dequeI7ProcessNS_9allocatorIS1_EEE13__deque_rangeC2B7v160006ENS_16__deque_iteratorIS1_PS1_RS1_PS7_lLl51EEESA_, symObjAddr: 0x15E48, symBinAddr: 0x10001CE50, symSize: 0x34 }
  - { offsetInCU: 0x1C0A4, offset: 0x348CF, size: 0x8, addend: 0x0, symName: __ZNSt3__15dequeI7ProcessNS_9allocatorIS1_EEE19__deque_block_rangeC1B7v160006EPS1_S6_, symObjAddr: 0x15EAC, symBinAddr: 0x10001CEB4, symSize: 0x3C }
  - { offsetInCU: 0x1C0EC, offset: 0x34917, size: 0x8, addend: 0x0, symName: __ZNSt3__15dequeI7ProcessNS_9allocatorIS1_EEE19__deque_block_rangeC2B7v160006EPS1_S6_, symObjAddr: 0x15EE8, symBinAddr: 0x10001CEF0, symSize: 0x2C }
  - { offsetInCU: 0x1C134, offset: 0x3495F, size: 0x8, addend: 0x0, symName: __ZNSt3__15dequeI7ProcessNS_9allocatorIS1_EEE21_ConstructTransactionC2B7v160006EPS4_RNS4_19__deque_block_rangeE, symObjAddr: 0x15F14, symBinAddr: 0x10001CF1C, symSize: 0x48 }
  - { offsetInCU: 0x1C17C, offset: 0x349A7, size: 0x8, addend: 0x0, symName: __ZNSt3__15dequeI7ProcessNS_9allocatorIS1_EEE21_ConstructTransactionD2B7v160006Ev, symObjAddr: 0x15F5C, symBinAddr: 0x10001CF64, symSize: 0x5C }
  - { offsetInCU: 0x1C1A6, offset: 0x349D1, size: 0x8, addend: 0x0, symName: __ZNKSt3__114__split_bufferIP7ProcessNS_9allocatorIS2_EEE5beginB7v160006Ev, symObjAddr: 0x15FB8, symBinAddr: 0x10001CFC0, symSize: 0x18 }
  - { offsetInCU: 0x1C1CC, offset: 0x349F7, size: 0x8, addend: 0x0, symName: __ZNSt3__116__deque_iteratorI7ProcessPKS1_RS2_PKS3_lLl51EEC1B7v160006ES6_S3_, symObjAddr: 0x15FD0, symBinAddr: 0x10001CFD8, symSize: 0x3C }
  - { offsetInCU: 0x1C214, offset: 0x34A3F, size: 0x8, addend: 0x0, symName: __ZNSt3__116__deque_iteratorI7ProcessPKS1_RS2_PKS3_lLl51EEC2B7v160006ES6_S3_, symObjAddr: 0x1600C, symBinAddr: 0x10001D014, symSize: 0x2C }
  - { offsetInCU: 0x1C25C, offset: 0x34A87, size: 0x8, addend: 0x0, symName: __ZNSt3__114basic_iostreamIcNS_11char_traitsIcEEEC2B7v160006EPNS_15basic_streambufIcS2_EE, symObjAddr: 0x1607C, symBinAddr: 0x10001D040, symSize: 0xB4 }
  - { offsetInCU: 0x1C2A2, offset: 0x34ACD, size: 0x8, addend: 0x0, symName: __ZNSt3__113basic_istreamIcNS_11char_traitsIcEEEC2B7v160006EPNS_15basic_streambufIcS2_EE, symObjAddr: 0x16198, symBinAddr: 0x10001D0F4, symSize: 0x64 }
  - { offsetInCU: 0x1C2E7, offset: 0x34B12, size: 0x8, addend: 0x0, symName: __ZNSt3__113basic_ostreamIcNS_11char_traitsIcEEEC2B7v160006Ev, symObjAddr: 0x161FC, symBinAddr: 0x10001D158, symSize: 0x34 }
  - { offsetInCU: 0xBA3F, offset: 0x407D0, size: 0x8, addend: 0x0, symName: __ZNSt3__1ltB7v160006IcNS_11char_traitsIcEENS_9allocatorIcEEEEbRKNS_12basic_stringIT_T0_T1_EESB_, symObjAddr: 0x1417C, symBinAddr: 0x100020A90, symSize: 0x38 }
  - { offsetInCU: 0xBABB, offset: 0x4084C, size: 0x8, addend: 0x0, symName: __ZNSt3__118__constexpr_memcmpB7v160006IcEEiPKT_S3_m, symObjAddr: 0x14440, symBinAddr: 0x100020D54, symSize: 0x34 }
  - { offsetInCU: 0xE668, offset: 0x433F9, size: 0x8, addend: 0x0, symName: __ZN2rr16get_queue_statusEv, symObjAddr: 0x0, symBinAddr: 0x10001D18C, symSize: 0x1C8 }
  - { offsetInCU: 0xE6B9, offset: 0x4344A, size: 0x8, addend: 0x0, symName: __ZN2rr8simulateEv, symObjAddr: 0x324, symBinAddr: 0x10001D354, symSize: 0x206C }
  - { offsetInCU: 0xE882, offset: 0x43613, size: 0x8, addend: 0x0, symName: __ZN2rr23compare_by_arrival_timeERK7ProcessS2_, symObjAddr: 0x2438, symBinAddr: 0x10001F3C0, symSize: 0x30 }
  - { offsetInCU: 0xE8B3, offset: 0x43644, size: 0x8, addend: 0x0, symName: __ZN2rr10print_lineERKNSt3__112basic_stringIcNS0_11char_traitsIcEENS0_9allocatorIcEEEE, symObjAddr: 0x2468, symBinAddr: 0x10001F3F0, symSize: 0xD8 }
  - { offsetInCU: 0xE94B, offset: 0x436DC, size: 0x8, addend: 0x0, symName: __ZNSt3__13mapINS_12basic_stringIcNS_11char_traitsIcEENS_9allocatorIcEEEEiNS_4lessIS6_EENS4_INS_4pairIKS6_iEEEEEC1B7v160006Ev, symObjAddr: 0x25C4, symBinAddr: 0x10001F4C8, symSize: 0x2C }
  - { offsetInCU: 0xE975, offset: 0x43706, size: 0x8, addend: 0x0, symName: __ZNSt3__13mapINS_12basic_stringIcNS_11char_traitsIcEENS_9allocatorIcEEEEiNS_4lessIS6_EENS4_INS_4pairIKS6_iEEEEEixERSA_, symObjAddr: 0x2830, symBinAddr: 0x10001F4F4, symSize: 0xC8 }
  - { offsetInCU: 0xE9F3, offset: 0x43784, size: 0x8, addend: 0x0, symName: __ZNSt3__13mapINS_12basic_stringIcNS_11char_traitsIcEENS_9allocatorIcEEEEiNS_4lessIS6_EENS4_INS_4pairIKS6_iEEEEED1B7v160006Ev, symObjAddr: 0x2E50, symBinAddr: 0x10001F5BC, symSize: 0x2C }
  - { offsetInCU: 0xEA1D, offset: 0x437AE, size: 0x8, addend: 0x0, symName: __ZN2rr16write_statisticsERKNSt3__112basic_stringIcNS0_11char_traitsIcEENS0_9allocatorIcEEEE, symObjAddr: 0x2F00, symBinAddr: 0x10001F5E8, symSize: 0x878 }
  - { offsetInCU: 0xEB4D, offset: 0x438DE, size: 0x8, addend: 0x0, symName: __ZNSt3__13mapINS_12basic_stringIcNS_11char_traitsIcEENS_9allocatorIcEEEEiNS_4lessIS6_EENS4_INS_4pairIKS6_iEEEEEC2B7v160006Ev, symObjAddr: 0xF718, symBinAddr: 0x10001FE90, symSize: 0x40 }
  - { offsetInCU: 0xEB77, offset: 0x43908, size: 0x8, addend: 0x0, symName: __ZNSt3__119__map_value_compareINS_12basic_stringIcNS_11char_traitsIcEENS_9allocatorIcEEEENS_12__value_typeIS6_iEENS_4lessIS6_EELb1EEC1B7v160006ESA_, symObjAddr: 0xF758, symBinAddr: 0x10001FED0, symSize: 0x2C }
  - { offsetInCU: 0xEBB0, offset: 0x43941, size: 0x8, addend: 0x0, symName: __ZNSt3__16__treeINS_12__value_typeINS_12basic_stringIcNS_11char_traitsIcEENS_9allocatorIcEEEEiEENS_19__map_value_compareIS7_S8_NS_4lessIS7_EELb1EEENS5_IS8_EEEC1ERKSC_, symObjAddr: 0xF784, symBinAddr: 0x10001FEFC, symSize: 0x34 }
  - { offsetInCU: 0xEBEB, offset: 0x4397C, size: 0x8, addend: 0x0, symName: __ZNSt3__119__map_value_compareINS_12basic_stringIcNS_11char_traitsIcEENS_9allocatorIcEEEENS_12__value_typeIS6_iEENS_4lessIS6_EELb1EEC2B7v160006ESA_, symObjAddr: 0xF7B8, symBinAddr: 0x10001FF30, symSize: 0x14 }
  - { offsetInCU: 0xEC24, offset: 0x439B5, size: 0x8, addend: 0x0, symName: __ZNSt3__16__treeINS_12__value_typeINS_12basic_stringIcNS_11char_traitsIcEENS_9allocatorIcEEEEiEENS_19__map_value_compareIS7_S8_NS_4lessIS7_EELb1EEENS5_IS8_EEEC2ERKSC_, symObjAddr: 0xF7CC, symBinAddr: 0x10001FF44, symSize: 0x70 }
  - { offsetInCU: 0xEC5F, offset: 0x439F0, size: 0x8, addend: 0x0, symName: __ZNSt3__117__compressed_pairINS_15__tree_end_nodeIPNS_16__tree_node_baseIPvEEEENS_9allocatorINS_11__tree_nodeINS_12__value_typeINS_12basic_stringIcNS_11char_traitsIcEENS7_IcEEEEiEES3_EEEEEC1B7v160006ILb1EvEEv, symObjAddr: 0xF83C, symBinAddr: 0x10001FFB4, symSize: 0x2C }
  - { offsetInCU: 0xEC94, offset: 0x43A25, size: 0x8, addend: 0x0, symName: __ZNSt3__117__compressed_pairImNS_19__map_value_compareINS_12basic_stringIcNS_11char_traitsIcEENS_9allocatorIcEEEENS_12__value_typeIS7_iEENS_4lessIS7_EELb1EEEEC1B7v160006IiRKSC_EEOT_OT0_, symObjAddr: 0xF868, symBinAddr: 0x10001FFE0, symSize: 0x3C }
  - { offsetInCU: 0xECEC, offset: 0x43A7D, size: 0x8, addend: 0x0, symName: __ZNSt3__16__treeINS_12__value_typeINS_12basic_stringIcNS_11char_traitsIcEENS_9allocatorIcEEEEiEENS_19__map_value_compareIS7_S8_NS_4lessIS7_EELb1EEENS5_IS8_EEE10__end_nodeB7v160006Ev, symObjAddr: 0xF8A4, symBinAddr: 0x10002001C, symSize: 0x2C }
  - { offsetInCU: 0xED12, offset: 0x43AA3, size: 0x8, addend: 0x0, symName: __ZNSt3__16__treeINS_12__value_typeINS_12basic_stringIcNS_11char_traitsIcEENS_9allocatorIcEEEEiEENS_19__map_value_compareIS7_S8_NS_4lessIS7_EELb1EEENS5_IS8_EEE12__begin_nodeB7v160006Ev, symObjAddr: 0xF8D0, symBinAddr: 0x100020048, symSize: 0x14 }
  - { offsetInCU: 0xED38, offset: 0x43AC9, size: 0x8, addend: 0x0, symName: __ZNSt3__117__compressed_pairINS_15__tree_end_nodeIPNS_16__tree_node_baseIPvEEEENS_9allocatorINS_11__tree_nodeINS_12__value_typeINS_12basic_stringIcNS_11char_traitsIcEENS7_IcEEEEiEES3_EEEEEC2B7v160006ILb1EvEEv, symObjAddr: 0xF8E4, symBinAddr: 0x10002005C, symSize: 0x34 }
  - { offsetInCU: 0xED6D, offset: 0x43AFE, size: 0x8, addend: 0x0, symName: __ZNSt3__122__compressed_pair_elemINS_9allocatorINS_11__tree_nodeINS_12__value_typeINS_12basic_stringIcNS_11char_traitsIcEENS1_IcEEEEiEEPvEEEELi1ELb1EEC2B7v160006ENS_16__value_init_tagE, symObjAddr: 0xF918, symBinAddr: 0x100020090, symSize: 0x2C }
  - { offsetInCU: 0xEDA2, offset: 0x43B33, size: 0x8, addend: 0x0, symName: __ZNSt3__19allocatorINS_11__tree_nodeINS_12__value_typeINS_12basic_stringIcNS_11char_traitsIcEENS0_IcEEEEiEEPvEEEC2B7v160006Ev, symObjAddr: 0xF944, symBinAddr: 0x1000200BC, symSize: 0x2C }
  - { offsetInCU: 0xEDCC, offset: 0x43B5D, size: 0x8, addend: 0x0, symName: __ZNSt3__116__non_trivial_ifILb1ENS_9allocatorINS_11__tree_nodeINS_12__value_typeINS_12basic_stringIcNS_11char_traitsIcEENS1_IcEEEEiEEPvEEEEEC2B7v160006Ev, symObjAddr: 0xF970, symBinAddr: 0x1000200E8, symSize: 0x14 }
  - { offsetInCU: 0xEDF6, offset: 0x43B87, size: 0x8, addend: 0x0, symName: __ZNSt3__117__compressed_pairImNS_19__map_value_compareINS_12basic_stringIcNS_11char_traitsIcEENS_9allocatorIcEEEENS_12__value_typeIS7_iEENS_4lessIS7_EELb1EEEEC2B7v160006IiRKSC_EEOT_OT0_, symObjAddr: 0xF984, symBinAddr: 0x1000200FC, symSize: 0x44 }
  - { offsetInCU: 0xEE4E, offset: 0x43BDF, size: 0x8, addend: 0x0, symName: __ZNSt3__122__compressed_pair_elemINS_19__map_value_compareINS_12basic_stringIcNS_11char_traitsIcEENS_9allocatorIcEEEENS_12__value_typeIS7_iEENS_4lessIS7_EELb1EEELi1ELb1EEC2B7v160006IRKSC_vEEOT_, symObjAddr: 0xF9C8, symBinAddr: 0x100020140, symSize: 0x18 }
  - { offsetInCU: 0xEE90, offset: 0x43C21, size: 0x8, addend: 0x0, symName: __ZNSt3__117__compressed_pairINS_15__tree_end_nodeIPNS_16__tree_node_baseIPvEEEENS_9allocatorINS_11__tree_nodeINS_12__value_typeINS_12basic_stringIcNS_11char_traitsIcEENS7_IcEEEEiEES3_EEEEE5firstB7v160006Ev, symObjAddr: 0xF9E0, symBinAddr: 0x100020158, symSize: 0x24 }
  - { offsetInCU: 0xEEB6, offset: 0x43C47, size: 0x8, addend: 0x0, symName: __ZNSt3__13mapINS_12basic_stringIcNS_11char_traitsIcEENS_9allocatorIcEEEEiNS_4lessIS6_EENS4_INS_4pairIKS6_iEEEEED2B7v160006Ev, symObjAddr: 0xFA04, symBinAddr: 0x10002017C, symSize: 0x2C }
  - { offsetInCU: 0xEEE0, offset: 0x43C71, size: 0x8, addend: 0x0, symName: __ZNSt3__16__treeINS_12__value_typeINS_12basic_stringIcNS_11char_traitsIcEENS_9allocatorIcEEEEiEENS_19__map_value_compareIS7_S8_NS_4lessIS7_EELb1EEENS5_IS8_EEED1Ev, symObjAddr: 0xFA30, symBinAddr: 0x1000201A8, symSize: 0x2C }
  - { offsetInCU: 0xEF0C, offset: 0x43C9D, size: 0x8, addend: 0x0, symName: __ZNSt3__16__treeINS_12__value_typeINS_12basic_stringIcNS_11char_traitsIcEENS_9allocatorIcEEEEiEENS_19__map_value_compareIS7_S8_NS_4lessIS7_EELb1EEENS5_IS8_EEED2Ev, symObjAddr: 0xFA5C, symBinAddr: 0x1000201D4, symSize: 0x38 }
  - { offsetInCU: 0xEF38, offset: 0x43CC9, size: 0x8, addend: 0x0, symName: __ZNSt3__16__treeINS_12__value_typeINS_12basic_stringIcNS_11char_traitsIcEENS_9allocatorIcEEEEiEENS_19__map_value_compareIS7_S8_NS_4lessIS7_EELb1EEENS5_IS8_EEE7destroyEPNS_11__tree_nodeIS8_PvEE, symObjAddr: 0xFA94, symBinAddr: 0x10002020C, symSize: 0xC0 }
  - { offsetInCU: 0xEF8D, offset: 0x43D1E, size: 0x8, addend: 0x0, symName: __ZNKSt3__16__treeINS_12__value_typeINS_12basic_stringIcNS_11char_traitsIcEENS_9allocatorIcEEEEiEENS_19__map_value_compareIS7_S8_NS_4lessIS7_EELb1EEENS5_IS8_EEE6__rootB7v160006Ev, symObjAddr: 0xFB54, symBinAddr: 0x1000202CC, symSize: 0x28 }
  - { offsetInCU: 0xEFB3, offset: 0x43D44, size: 0x8, addend: 0x0, symName: __ZNSt3__16__treeINS_12__value_typeINS_12basic_stringIcNS_11char_traitsIcEENS_9allocatorIcEEEEiEENS_19__map_value_compareIS7_S8_NS_4lessIS7_EELb1EEENS5_IS8_EEE12__node_allocB7v160006Ev, symObjAddr: 0xFB7C, symBinAddr: 0x1000202F4, symSize: 0x28 }
  - { offsetInCU: 0xEFD9, offset: 0x43D6A, size: 0x8, addend: 0x0, symName: __ZNSt3__116allocator_traitsINS_9allocatorINS_11__tree_nodeINS_12__value_typeINS_12basic_stringIcNS_11char_traitsIcEENS1_IcEEEEiEEPvEEEEE7destroyB7v160006INS_4pairIKS8_iEEvvEEvRSC_PT_, symObjAddr: 0xFBA4, symBinAddr: 0x10002031C, symSize: 0x28 }
  - { offsetInCU: 0xF013, offset: 0x43DA4, size: 0x8, addend: 0x0, symName: __ZNSt3__122__tree_key_value_typesINS_12__value_typeINS_12basic_stringIcNS_11char_traitsIcEENS_9allocatorIcEEEEiEEE9__get_ptrB7v160006ERS8_, symObjAddr: 0xFBCC, symBinAddr: 0x100020344, symSize: 0x24 }
  - { offsetInCU: 0xF037, offset: 0x43DC8, size: 0x8, addend: 0x0, symName: __ZNSt3__116allocator_traitsINS_9allocatorINS_11__tree_nodeINS_12__value_typeINS_12basic_stringIcNS_11char_traitsIcEENS1_IcEEEEiEEPvEEEEE10deallocateB7v160006ERSC_PSB_m, symObjAddr: 0xFBF0, symBinAddr: 0x100020368, symSize: 0x34 }
  - { offsetInCU: 0xF079, offset: 0x43E0A, size: 0x8, addend: 0x0, symName: __ZNSt3__117__compressed_pairINS_15__tree_end_nodeIPNS_16__tree_node_baseIPvEEEENS_9allocatorINS_11__tree_nodeINS_12__value_typeINS_12basic_stringIcNS_11char_traitsIcEENS7_IcEEEEiEES3_EEEEE6secondB7v160006Ev, symObjAddr: 0xFC24, symBinAddr: 0x10002039C, symSize: 0x24 }
  - { offsetInCU: 0xF09F, offset: 0x43E30, size: 0x8, addend: 0x0, symName: __ZNSt3__122__compressed_pair_elemINS_9allocatorINS_11__tree_nodeINS_12__value_typeINS_12basic_stringIcNS_11char_traitsIcEENS1_IcEEEEiEEPvEEEELi1ELb1EE5__getB7v160006Ev, symObjAddr: 0xFC48, symBinAddr: 0x1000203C0, symSize: 0x14 }
  - { offsetInCU: 0xF0C5, offset: 0x43E56, size: 0x8, addend: 0x0, symName: __ZNSt3__14pairIKNS_12basic_stringIcNS_11char_traitsIcEENS_9allocatorIcEEEEiED1Ev, symObjAddr: 0xFC5C, symBinAddr: 0x1000203D4, symSize: 0x2C }
  - { offsetInCU: 0xF0F1, offset: 0x43E82, size: 0x8, addend: 0x0, symName: __ZNSt3__14pairIKNS_12basic_stringIcNS_11char_traitsIcEENS_9allocatorIcEEEEiED2Ev, symObjAddr: 0xFC88, symBinAddr: 0x100020400, symSize: 0x2C }
  - { offsetInCU: 0xF11D, offset: 0x43EAE, size: 0x8, addend: 0x0, symName: __ZNSt3__112__value_typeINS_12basic_stringIcNS_11char_traitsIcEENS_9allocatorIcEEEEiE11__get_valueB7v160006Ev, symObjAddr: 0xFCB4, symBinAddr: 0x10002042C, symSize: 0x14 }
  - { offsetInCU: 0xF143, offset: 0x43ED4, size: 0x8, addend: 0x0, symName: __ZNSt3__19allocatorINS_11__tree_nodeINS_12__value_typeINS_12basic_stringIcNS_11char_traitsIcEENS0_IcEEEEiEEPvEEE10deallocateB7v160006EPSA_m, symObjAddr: 0xFCC8, symBinAddr: 0x100020440, symSize: 0x70 }
  - { offsetInCU: 0xF185, offset: 0x43F16, size: 0x8, addend: 0x0, symName: __ZNKSt3__16__treeINS_12__value_typeINS_12basic_stringIcNS_11char_traitsIcEENS_9allocatorIcEEEEiEENS_19__map_value_compareIS7_S8_NS_4lessIS7_EELb1EEENS5_IS8_EEE10__end_nodeB7v160006Ev, symObjAddr: 0xFD38, symBinAddr: 0x1000204B0, symSize: 0x2C }
  - { offsetInCU: 0xF1AB, offset: 0x43F3C, size: 0x8, addend: 0x0, symName: __ZNKSt3__117__compressed_pairINS_15__tree_end_nodeIPNS_16__tree_node_baseIPvEEEENS_9allocatorINS_11__tree_nodeINS_12__value_typeINS_12basic_stringIcNS_11char_traitsIcEENS7_IcEEEEiEES3_EEEEE5firstB7v160006Ev, symObjAddr: 0xFD64, symBinAddr: 0x1000204DC, symSize: 0x24 }
  - { offsetInCU: 0xF1D1, offset: 0x43F62, size: 0x8, addend: 0x0, symName: __ZNSt3__16__treeINS_12__value_typeINS_12basic_stringIcNS_11char_traitsIcEENS_9allocatorIcEEEEiEENS_19__map_value_compareIS7_S8_NS_4lessIS7_EELb1EEENS5_IS8_EEE12__find_equalIS7_EERPNS_16__tree_node_baseIPvEERPNS_15__tree_end_nodeISJ_EERKT_, symObjAddr: 0x13BEC, symBinAddr: 0x100020500, symSize: 0x184 }
  - { offsetInCU: 0xF23E, offset: 0x43FCF, size: 0x8, addend: 0x0, symName: __ZNSt3__13mapINS_12basic_stringIcNS_11char_traitsIcEENS_9allocatorIcEEEEiNS_4lessIS6_EENS4_INS_4pairIKS6_iEEEEE25__construct_node_with_keyERSA_, symObjAddr: 0x13D70, symBinAddr: 0x100020684, symSize: 0x144 }
  - { offsetInCU: 0xF294, offset: 0x44025, size: 0x8, addend: 0x0, symName: __ZNSt3__16__treeINS_12__value_typeINS_12basic_stringIcNS_11char_traitsIcEENS_9allocatorIcEEEEiEENS_19__map_value_compareIS7_S8_NS_4lessIS7_EELb1EEENS5_IS8_EEE16__insert_node_atEPNS_15__tree_end_nodeIPNS_16__tree_node_baseIPvEEEERSJ_SJ_, symObjAddr: 0x13EB4, symBinAddr: 0x1000207C8, symSize: 0xCC }
  - { offsetInCU: 0xF2E9, offset: 0x4407A, size: 0x8, addend: 0x0, symName: __ZNKSt3__110unique_ptrINS_11__tree_nodeINS_12__value_typeINS_12basic_stringIcNS_11char_traitsIcEENS_9allocatorIcEEEEiEEPvEENS_21__map_node_destructorINS6_ISB_EEEEE3getB7v160006Ev, symObjAddr: 0x13F80, symBinAddr: 0x100020894, symSize: 0x28 }
  - { offsetInCU: 0xF30F, offset: 0x440A0, size: 0x8, addend: 0x0, symName: __ZNSt3__110unique_ptrINS_11__tree_nodeINS_12__value_typeINS_12basic_stringIcNS_11char_traitsIcEENS_9allocatorIcEEEEiEEPvEENS_21__map_node_destructorINS6_ISB_EEEEE7releaseB7v160006Ev, symObjAddr: 0x13FA8, symBinAddr: 0x1000208BC, symSize: 0x44 }
  - { offsetInCU: 0xF344, offset: 0x440D5, size: 0x8, addend: 0x0, symName: __ZNSt3__110unique_ptrINS_11__tree_nodeINS_12__value_typeINS_12basic_stringIcNS_11char_traitsIcEENS_9allocatorIcEEEEiEEPvEENS_21__map_node_destructorINS6_ISB_EEEEED1B7v160006Ev, symObjAddr: 0x13FEC, symBinAddr: 0x100020900, symSize: 0x2C }
  - { offsetInCU: 0xF36E, offset: 0x440FF, size: 0x8, addend: 0x0, symName: __ZNKSt3__16__treeINS_12__value_typeINS_12basic_stringIcNS_11char_traitsIcEENS_9allocatorIcEEEEiEENS_19__map_value_compareIS7_S8_NS_4lessIS7_EELb1EEENS5_IS8_EEE10__root_ptrEv, symObjAddr: 0x14018, symBinAddr: 0x10002092C, symSize: 0x24 }
  - { offsetInCU: 0xF394, offset: 0x44125, size: 0x8, addend: 0x0, symName: __ZNSt3__16__treeINS_12__value_typeINS_12basic_stringIcNS_11char_traitsIcEENS_9allocatorIcEEEEiEENS_19__map_value_compareIS7_S8_NS_4lessIS7_EELb1EEENS5_IS8_EEE10value_compB7v160006Ev, symObjAddr: 0x1403C, symBinAddr: 0x100020950, symSize: 0x28 }
  - { offsetInCU: 0xF3BA, offset: 0x4414B, size: 0x8, addend: 0x0, symName: __ZNKSt3__119__map_value_compareINS_12basic_stringIcNS_11char_traitsIcEENS_9allocatorIcEEEENS_12__value_typeIS6_iEENS_4lessIS6_EELb1EEclB7v160006ERKS6_RKS8_, symObjAddr: 0x14064, symBinAddr: 0x100020978, symSize: 0x50 }
  - { offsetInCU: 0xF3FE, offset: 0x4418F, size: 0x8, addend: 0x0, symName: __ZNKSt3__119__map_value_compareINS_12basic_stringIcNS_11char_traitsIcEENS_9allocatorIcEEEENS_12__value_typeIS6_iEENS_4lessIS6_EELb1EEclB7v160006ERKS8_RKS6_, symObjAddr: 0x140B4, symBinAddr: 0x1000209C8, symSize: 0x48 }
  - { offsetInCU: 0xF442, offset: 0x441D3, size: 0x8, addend: 0x0, symName: __ZNSt3__117__compressed_pairImNS_19__map_value_compareINS_12basic_stringIcNS_11char_traitsIcEENS_9allocatorIcEEEENS_12__value_typeIS7_iEENS_4lessIS7_EELb1EEEE6secondB7v160006Ev, symObjAddr: 0x140FC, symBinAddr: 0x100020A10, symSize: 0x24 }
  - { offsetInCU: 0xF468, offset: 0x441F9, size: 0x8, addend: 0x0, symName: __ZNSt3__122__compressed_pair_elemINS_19__map_value_compareINS_12basic_stringIcNS_11char_traitsIcEENS_9allocatorIcEEEENS_12__value_typeIS7_iEENS_4lessIS7_EELb1EEELi1ELb1EE5__getB7v160006Ev, symObjAddr: 0x14120, symBinAddr: 0x100020A34, symSize: 0x14 }
  - { offsetInCU: 0xF48E, offset: 0x4421F, size: 0x8, addend: 0x0, symName: __ZNKSt3__14lessINS_12basic_stringIcNS_11char_traitsIcEENS_9allocatorIcEEEEEclB7v160006ERKS6_S9_, symObjAddr: 0x14134, symBinAddr: 0x100020A48, symSize: 0x34 }
  - { offsetInCU: 0xF4D2, offset: 0x44263, size: 0x8, addend: 0x0, symName: __ZNKSt3__112__value_typeINS_12basic_stringIcNS_11char_traitsIcEENS_9allocatorIcEEEEiE11__get_valueB7v160006Ev, symObjAddr: 0x14168, symBinAddr: 0x100020A7C, symSize: 0x14 }
  - { offsetInCU: 0xF4F8, offset: 0x44289, size: 0x8, addend: 0x0, symName: __ZNKSt3__112basic_stringIcNS_11char_traitsIcEENS_9allocatorIcEEE7compareB7v160006ERKS5_, symObjAddr: 0x141B4, symBinAddr: 0x100020AC8, symSize: 0x4C }
  - { offsetInCU: 0xF52F, offset: 0x442C0, size: 0x8, addend: 0x0, symName: __ZNKSt3__112basic_stringIcNS_11char_traitsIcEENS_9allocatorIcEEE7compareINS_17basic_string_viewIcS2_EEEENS_9enable_ifIXsr33__can_be_converted_to_string_viewIcS2_T_EE5valueEiE4typeERKSA_, symObjAddr: 0x14200, symBinAddr: 0x100020B14, symSize: 0x140 }
  - { offsetInCU: 0xF5AC, offset: 0x4433D, size: 0x8, addend: 0x0, symName: __ZNKSt3__112basic_stringIcNS_11char_traitsIcEENS_9allocatorIcEEEcvNS_17basic_string_viewIcS2_EEB7v160006Ev, symObjAddr: 0x14340, symBinAddr: 0x100020C54, symSize: 0x50 }
  - { offsetInCU: 0xF5D2, offset: 0x44363, size: 0x8, addend: 0x0, symName: __ZNKSt3__117basic_string_viewIcNS_11char_traitsIcEEE4sizeB7v160006Ev, symObjAddr: 0x14390, symBinAddr: 0x100020CA4, symSize: 0x18 }
  - { offsetInCU: 0xF5F8, offset: 0x44389, size: 0x8, addend: 0x0, symName: __ZNSt3__111char_traitsIcE7compareEPKcS3_m, symObjAddr: 0x143A8, symBinAddr: 0x100020CBC, symSize: 0x80 }
  - { offsetInCU: 0xF637, offset: 0x443C8, size: 0x8, addend: 0x0, symName: __ZNKSt3__117basic_string_viewIcNS_11char_traitsIcEEE4dataB7v160006Ev, symObjAddr: 0x14428, symBinAddr: 0x100020D3C, symSize: 0x18 }
  - { offsetInCU: 0xF65D, offset: 0x443EE, size: 0x8, addend: 0x0, symName: __ZNSt3__117basic_string_viewIcNS_11char_traitsIcEEEC1B7v160006EPKcm, symObjAddr: 0x14474, symBinAddr: 0x100020D88, symSize: 0x3C }
  - { offsetInCU: 0xF6A5, offset: 0x44436, size: 0x8, addend: 0x0, symName: __ZNSt3__117basic_string_viewIcNS_11char_traitsIcEEEC2B7v160006EPKcm, symObjAddr: 0x144B0, symBinAddr: 0x100020DC4, symSize: 0x2C }
  - { offsetInCU: 0xF6ED, offset: 0x4447E, size: 0x8, addend: 0x0, symName: __ZNSt3__116allocator_traitsINS_9allocatorINS_11__tree_nodeINS_12__value_typeINS_12basic_stringIcNS_11char_traitsIcEENS1_IcEEEEiEEPvEEEEE8allocateB7v160006ERSC_m, symObjAddr: 0x144DC, symBinAddr: 0x100020DF0, symSize: 0x2C }
  - { offsetInCU: 0xF720, offset: 0x444B1, size: 0x8, addend: 0x0, symName: __ZNSt3__121__map_node_destructorINS_9allocatorINS_11__tree_nodeINS_12__value_typeINS_12basic_stringIcNS_11char_traitsIcEENS1_IcEEEEiEEPvEEEEEC1B7v160006ERSC_, symObjAddr: 0x14508, symBinAddr: 0x100020E1C, symSize: 0x34 }
  - { offsetInCU: 0xF75F, offset: 0x444F0, size: 0x8, addend: 0x0, symName: __ZNSt3__110unique_ptrINS_11__tree_nodeINS_12__value_typeINS_12basic_stringIcNS_11char_traitsIcEENS_9allocatorIcEEEEiEEPvEENS_21__map_node_destructorINS6_ISB_EEEEEC1B7v160006ILb1EvEEPSB_NS_16__dependent_typeINS_27__unique_ptr_deleter_sfinaeISE_EEXT_EE20__good_rval_ref_typeE, symObjAddr: 0x1453C, symBinAddr: 0x100020E50, symSize: 0x3C }
  - { offsetInCU: 0xF7B5, offset: 0x44546, size: 0x8, addend: 0x0, symName: __ZNSt3__116allocator_traitsINS_9allocatorINS_11__tree_nodeINS_12__value_typeINS_12basic_stringIcNS_11char_traitsIcEENS1_IcEEEEiEEPvEEEEE9constructB7v160006IKS8_JRSF_EvEEvRSC_PT_DpOT0_, symObjAddr: 0x14578, symBinAddr: 0x100020E8C, symSize: 0x34 }
  - { offsetInCU: 0xF80C, offset: 0x4459D, size: 0x8, addend: 0x0, symName: __ZNKSt3__110unique_ptrINS_11__tree_nodeINS_12__value_typeINS_12basic_stringIcNS_11char_traitsIcEENS_9allocatorIcEEEEiEEPvEENS_21__map_node_destructorINS6_ISB_EEEEEptB7v160006Ev, symObjAddr: 0x145AC, symBinAddr: 0x100020EC0, symSize: 0x28 }
  - { offsetInCU: 0xF832, offset: 0x445C3, size: 0x8, addend: 0x0, symName: __ZNSt3__110unique_ptrINS_11__tree_nodeINS_12__value_typeINS_12basic_stringIcNS_11char_traitsIcEENS_9allocatorIcEEEEiEEPvEENS_21__map_node_destructorINS6_ISB_EEEEE11get_deleterB7v160006Ev, symObjAddr: 0x145D4, symBinAddr: 0x100020EE8, symSize: 0x24 }
  - { offsetInCU: 0xF858, offset: 0x445E9, size: 0x8, addend: 0x0, symName: __ZNSt3__116allocator_traitsINS_9allocatorINS_11__tree_nodeINS_12__value_typeINS_12basic_stringIcNS_11char_traitsIcEENS1_IcEEEEiEEPvEEEEE9constructB7v160006IiJEvEEvRSC_PT_DpOT0_, symObjAddr: 0x145F8, symBinAddr: 0x100020F0C, symSize: 0x2C }
  - { offsetInCU: 0xF89A, offset: 0x4462B, size: 0x8, addend: 0x0, symName: __ZNSt3__19allocatorINS_11__tree_nodeINS_12__value_typeINS_12basic_stringIcNS_11char_traitsIcEENS0_IcEEEEiEEPvEEE8allocateB7v160006Em, symObjAddr: 0x14624, symBinAddr: 0x100020F38, symSize: 0x84 }
  - { offsetInCU: 0xF8D8, offset: 0x44669, size: 0x8, addend: 0x0, symName: __ZNSt3__116allocator_traitsINS_9allocatorINS_11__tree_nodeINS_12__value_typeINS_12basic_stringIcNS_11char_traitsIcEENS1_IcEEEEiEEPvEEEEE8max_sizeB7v160006ISC_vEEmRKSC_, symObjAddr: 0x146A8, symBinAddr: 0x100020FBC, symSize: 0x24 }
  - { offsetInCU: 0xF906, offset: 0x44697, size: 0x8, addend: 0x0, symName: __ZNKSt3__19allocatorINS_11__tree_nodeINS_12__value_typeINS_12basic_stringIcNS_11char_traitsIcEENS0_IcEEEEiEEPvEEE8max_sizeB7v160006Ev, symObjAddr: 0x146CC, symBinAddr: 0x100020FE0, symSize: 0x14 }
  - { offsetInCU: 0xF92C, offset: 0x446BD, size: 0x8, addend: 0x0, symName: __ZNSt3__121__map_node_destructorINS_9allocatorINS_11__tree_nodeINS_12__value_typeINS_12basic_stringIcNS_11char_traitsIcEENS1_IcEEEEiEEPvEEEEEC2B7v160006ERSC_, symObjAddr: 0x146E0, symBinAddr: 0x100020FF4, symSize: 0x28 }
  - { offsetInCU: 0xF965, offset: 0x446F6, size: 0x8, addend: 0x0, symName: __ZNSt3__110unique_ptrINS_11__tree_nodeINS_12__value_typeINS_12basic_stringIcNS_11char_traitsIcEENS_9allocatorIcEEEEiEEPvEENS_21__map_node_destructorINS6_ISB_EEEEEC2B7v160006ILb1EvEEPSB_NS_16__dependent_typeINS_27__unique_ptr_deleter_sfinaeISE_EEXT_EE20__good_rval_ref_typeE, symObjAddr: 0x14708, symBinAddr: 0x10002101C, symSize: 0x5C }
  - { offsetInCU: 0xF9B6, offset: 0x44747, size: 0x8, addend: 0x0, symName: __ZNSt3__117__compressed_pairIPNS_11__tree_nodeINS_12__value_typeINS_12basic_stringIcNS_11char_traitsIcEENS_9allocatorIcEEEEiEEPvEENS_21__map_node_destructorINS6_ISB_EEEEEC1B7v160006IRSC_SF_EEOT_OT0_, symObjAddr: 0x14764, symBinAddr: 0x100021078, symSize: 0x3C }
  - { offsetInCU: 0xFA0E, offset: 0x4479F, size: 0x8, addend: 0x0, symName: __ZNSt3__117__compressed_pairIPNS_11__tree_nodeINS_12__value_typeINS_12basic_stringIcNS_11char_traitsIcEENS_9allocatorIcEEEEiEEPvEENS_21__map_node_destructorINS6_ISB_EEEEEC2B7v160006IRSC_SF_EEOT_OT0_, symObjAddr: 0x147A0, symBinAddr: 0x1000210B4, symSize: 0x48 }
  - { offsetInCU: 0xFA66, offset: 0x447F7, size: 0x8, addend: 0x0, symName: __ZNSt3__122__compressed_pair_elemIPNS_11__tree_nodeINS_12__value_typeINS_12basic_stringIcNS_11char_traitsIcEENS_9allocatorIcEEEEiEEPvEELi0ELb0EEC2B7v160006IRSC_vEEOT_, symObjAddr: 0x147E8, symBinAddr: 0x1000210FC, symSize: 0x24 }
  - { offsetInCU: 0xFAA8, offset: 0x44839, size: 0x8, addend: 0x0, symName: __ZNSt3__122__compressed_pair_elemINS_21__map_node_destructorINS_9allocatorINS_11__tree_nodeINS_12__value_typeINS_12basic_stringIcNS_11char_traitsIcEENS2_IcEEEEiEEPvEEEEEELi1ELb0EEC2B7v160006ISE_vEEOT_, symObjAddr: 0x1480C, symBinAddr: 0x100021120, symSize: 0x24 }
  - { offsetInCU: 0xFAEA, offset: 0x4487B, size: 0x8, addend: 0x0, symName: __ZNSt3__19allocatorINS_11__tree_nodeINS_12__value_typeINS_12basic_stringIcNS_11char_traitsIcEENS0_IcEEEEiEEPvEEE9constructB7v160006IKS7_JRSD_EEEvPT_DpOT0_, symObjAddr: 0x14830, symBinAddr: 0x100021144, symSize: 0x30 }
  - { offsetInCU: 0xFB40, offset: 0x448D1, size: 0x8, addend: 0x0, symName: __ZNKSt3__117__compressed_pairIPNS_11__tree_nodeINS_12__value_typeINS_12basic_stringIcNS_11char_traitsIcEENS_9allocatorIcEEEEiEEPvEENS_21__map_node_destructorINS6_ISB_EEEEE5firstB7v160006Ev, symObjAddr: 0x14860, symBinAddr: 0x100021174, symSize: 0x24 }
  - { offsetInCU: 0xFB66, offset: 0x448F7, size: 0x8, addend: 0x0, symName: __ZNKSt3__122__compressed_pair_elemIPNS_11__tree_nodeINS_12__value_typeINS_12basic_stringIcNS_11char_traitsIcEENS_9allocatorIcEEEEiEEPvEELi0ELb0EE5__getB7v160006Ev, symObjAddr: 0x14884, symBinAddr: 0x100021198, symSize: 0x14 }
  - { offsetInCU: 0xFB8C, offset: 0x4491D, size: 0x8, addend: 0x0, symName: __ZNSt3__117__compressed_pairIPNS_11__tree_nodeINS_12__value_typeINS_12basic_stringIcNS_11char_traitsIcEENS_9allocatorIcEEEEiEEPvEENS_21__map_node_destructorINS6_ISB_EEEEE6secondB7v160006Ev, symObjAddr: 0x14898, symBinAddr: 0x1000211AC, symSize: 0x28 }
  - { offsetInCU: 0xFBB2, offset: 0x44943, size: 0x8, addend: 0x0, symName: __ZNSt3__122__compressed_pair_elemINS_21__map_node_destructorINS_9allocatorINS_11__tree_nodeINS_12__value_typeINS_12basic_stringIcNS_11char_traitsIcEENS2_IcEEEEiEEPvEEEEEELi1ELb0EE5__getB7v160006Ev, symObjAddr: 0x148C0, symBinAddr: 0x1000211D4, symSize: 0x14 }
  - { offsetInCU: 0xFBD8, offset: 0x44969, size: 0x8, addend: 0x0, symName: __ZNSt3__19allocatorINS_11__tree_nodeINS_12__value_typeINS_12basic_stringIcNS_11char_traitsIcEENS0_IcEEEEiEEPvEEE9constructB7v160006IiJEEEvPT_DpOT0_, symObjAddr: 0x148D4, symBinAddr: 0x1000211E8, symSize: 0x1C }
  - { offsetInCU: 0xFC1A, offset: 0x449AB, size: 0x8, addend: 0x0, symName: __ZNSt3__16__treeINS_12__value_typeINS_12basic_stringIcNS_11char_traitsIcEENS_9allocatorIcEEEEiEENS_19__map_value_compareIS7_S8_NS_4lessIS7_EELb1EEENS5_IS8_EEE4sizeB7v160006Ev, symObjAddr: 0x14C30, symBinAddr: 0x100021204, symSize: 0x28 }
  - { offsetInCU: 0xFC40, offset: 0x449D1, size: 0x8, addend: 0x0, symName: __ZNSt3__117__compressed_pairImNS_19__map_value_compareINS_12basic_stringIcNS_11char_traitsIcEENS_9allocatorIcEEEENS_12__value_typeIS7_iEENS_4lessIS7_EELb1EEEE5firstB7v160006Ev, symObjAddr: 0x14E74, symBinAddr: 0x10002122C, symSize: 0x24 }
  - { offsetInCU: 0xFC66, offset: 0x449F7, size: 0x8, addend: 0x0, symName: __ZNSt3__117__compressed_pairIPNS_11__tree_nodeINS_12__value_typeINS_12basic_stringIcNS_11char_traitsIcEENS_9allocatorIcEEEEiEEPvEENS_21__map_node_destructorINS6_ISB_EEEEE5firstB7v160006Ev, symObjAddr: 0x14E98, symBinAddr: 0x100021250, symSize: 0x24 }
  - { offsetInCU: 0xFC8C, offset: 0x44A1D, size: 0x8, addend: 0x0, symName: __ZNSt3__122__compressed_pair_elemIPNS_11__tree_nodeINS_12__value_typeINS_12basic_stringIcNS_11char_traitsIcEENS_9allocatorIcEEEEiEEPvEELi0ELb0EE5__getB7v160006Ev, symObjAddr: 0x14EBC, symBinAddr: 0x100021274, symSize: 0x14 }
  - { offsetInCU: 0xFCB2, offset: 0x44A43, size: 0x8, addend: 0x0, symName: __ZNSt3__110unique_ptrINS_11__tree_nodeINS_12__value_typeINS_12basic_stringIcNS_11char_traitsIcEENS_9allocatorIcEEEEiEEPvEENS_21__map_node_destructorINS6_ISB_EEEEED2B7v160006Ev, symObjAddr: 0x14ED0, symBinAddr: 0x100021288, symSize: 0x30 }
  - { offsetInCU: 0xFCDC, offset: 0x44A6D, size: 0x8, addend: 0x0, symName: __ZNSt3__110unique_ptrINS_11__tree_nodeINS_12__value_typeINS_12basic_stringIcNS_11char_traitsIcEENS_9allocatorIcEEEEiEEPvEENS_21__map_node_destructorINS6_ISB_EEEEE5resetB7v160006EPSB_, symObjAddr: 0x14F00, symBinAddr: 0x1000212B8, symSize: 0x78 }
  - { offsetInCU: 0xFD20, offset: 0x44AB1, size: 0x8, addend: 0x0, symName: __ZNSt3__121__map_node_destructorINS_9allocatorINS_11__tree_nodeINS_12__value_typeINS_12basic_stringIcNS_11char_traitsIcEENS1_IcEEEEiEEPvEEEEEclB7v160006EPSB_, symObjAddr: 0x14F78, symBinAddr: 0x100021330, symSize: 0xE4 }
  - { offsetInCU: 0xFD55, offset: 0x44AE6, size: 0x8, addend: 0x0, symName: __ZNSt3__116allocator_traitsINS_9allocatorINS_11__tree_nodeINS_12__value_typeINS_12basic_stringIcNS_11char_traitsIcEENS1_IcEEEEiEEPvEEEEE7destroyB7v160006IivvEEvRSC_PT_, symObjAddr: 0x1505C, symBinAddr: 0x100021414, symSize: 0x14 }
  - { offsetInCU: 0xFD8F, offset: 0x44B20, size: 0x8, addend: 0x0, symName: __ZNSt3__116allocator_traitsINS_9allocatorINS_11__tree_nodeINS_12__value_typeINS_12basic_stringIcNS_11char_traitsIcEENS1_IcEEEEiEEPvEEEEE7destroyB7v160006IKS8_vvEEvRSC_PT_, symObjAddr: 0x15070, symBinAddr: 0x100021428, symSize: 0x28 }
  - { offsetInCU: 0x4E6F, offset: 0x49A36, size: 0x8, addend: 0x0, symName: __ZNSt3__117__floyd_sift_downB7v160006INS_17_ClassicAlgPolicyERN3srt20CompareRemainingTimeENS_11__wrap_iterIP7ProcessEEEET1_S9_OT0_NS_15iterator_traitsIS9_E15difference_typeE, symObjAddr: 0x75A8, symBinAddr: 0x100023900, symSize: 0x148 }
  - { offsetInCU: 0x8582, offset: 0x4D149, size: 0x8, addend: 0x0, symName: __ZNSt3__18pop_heapB7v160006INS_11__wrap_iterIP7ProcessEEN3srt20CompareRemainingTimeEEEvT_S7_T0_, symObjAddr: 0x7328, symBinAddr: 0x100023708, symSize: 0x58 }
  - { offsetInCU: 0x85E7, offset: 0x4D1AE, size: 0x8, addend: 0x0, symName: __ZNSt3__110__pop_heapB7v160006INS_17_ClassicAlgPolicyEN3srt20CompareRemainingTimeENS_11__wrap_iterIP7ProcessEEEEvT1_S8_RT0_NS_15iterator_traitsIS8_E15difference_typeE, symObjAddr: 0x73F4, symBinAddr: 0x10002378C, symSize: 0x174 }
  - { offsetInCU: 0x8692, offset: 0x4D259, size: 0x8, addend: 0x0, symName: __ZNSt3__19__sift_upB7v160006INS_17_ClassicAlgPolicyERN3srt20CompareRemainingTimeENS_11__wrap_iterIP7ProcessEEEEvT1_S9_OT0_NS_15iterator_traitsIS9_E15difference_typeE, symObjAddr: 0x7790, symBinAddr: 0x100023A48, symSize: 0x19C }
  - { offsetInCU: 0x8733, offset: 0x4D2FA, size: 0x8, addend: 0x0, symName: __ZNSt3__1gtB7v160006IcNS_11char_traitsIcEENS_9allocatorIcEEEEbRKNS_12basic_stringIT_T0_T1_EESB_, symObjAddr: 0x7A2C, symBinAddr: 0x100023C74, symSize: 0x30 }
  - { offsetInCU: 0x878B, offset: 0x4D352, size: 0x8, addend: 0x0, symName: __ZNSt3__1miB7v160006IPK7ProcessS3_EENS_11__wrap_iterIT_E15difference_typeERKS6_RKNS4_IT0_EE, symObjAddr: 0xAA50, symBinAddr: 0x100023E40, symSize: 0x48 }
  - { offsetInCU: 0x87D7, offset: 0x4D39E, size: 0x8, addend: 0x0, symName: __ZNSt3__14moveB7v160006IP7ProcessS2_EET0_T_S4_S3_, symObjAddr: 0xAAC4, symBinAddr: 0x100023EB4, symSize: 0x40 }
  - { offsetInCU: 0x8831, offset: 0x4D3F8, size: 0x8, addend: 0x0, symName: __ZNSt3__16__moveB7v160006INS_17_ClassicAlgPolicyEP7ProcessS3_S3_EENS_4pairIT0_T2_EES5_T1_S6_, symObjAddr: 0xABE0, symBinAddr: 0x100023EF4, symSize: 0x44 }
  - { offsetInCU: 0x889D, offset: 0x4D464, size: 0x8, addend: 0x0, symName: __ZNSt3__123__dispatch_copy_or_moveB7v160006INS_17_ClassicAlgPolicyENS_11__move_loopIS1_EENS_14__move_trivialEP7ProcessS6_S6_EENS_4pairIT2_T4_EES8_T3_S9_, symObjAddr: 0xAC24, symBinAddr: 0x100023F38, symSize: 0x70 }
  - { offsetInCU: 0x891B, offset: 0x4D4E2, size: 0x8, addend: 0x0, symName: __ZNSt3__121__unwrap_and_dispatchB7v160006INS_11__move_loopINS_17_ClassicAlgPolicyEEEP7ProcessS5_S5_Li0EEENS_4pairIT0_T2_EES7_T1_S8_, symObjAddr: 0xAC94, symBinAddr: 0x100023FA8, symSize: 0xB4 }
  - { offsetInCU: 0x89A9, offset: 0x4D570, size: 0x8, addend: 0x0, symName: __ZNSt3__121__unwrap_and_dispatchB7v160006INS_10__overloadINS_11__move_loopINS_17_ClassicAlgPolicyEEENS_14__move_trivialEEEP7ProcessS8_S8_Li0EEENS_4pairIT0_T2_EESA_T1_SB_, symObjAddr: 0xAD48, symBinAddr: 0x10002405C, symSize: 0xB4 }
  - { offsetInCU: 0x8A37, offset: 0x4D5FE, size: 0x8, addend: 0x0, symName: __ZNSt3__114__unwrap_rangeB7v160006IP7ProcessS2_EENS_4pairIT0_S4_EET_S6_, symObjAddr: 0xADFC, symBinAddr: 0x100024110, symSize: 0x60 }
  - { offsetInCU: 0x8BC1, offset: 0x4D788, size: 0x8, addend: 0x0, symName: __ZNSt3__113__unwrap_iterB7v160006IP7ProcessNS_18__unwrap_iter_implIS2_Lb1EEELi0EEEDTclsrT0_8__unwrapclsr3stdE7declvalIT_EEEES6_, symObjAddr: 0xAEEC, symBinAddr: 0x100024200, symSize: 0x24 }
  - { offsetInCU: 0x8C05, offset: 0x4D7CC, size: 0x8, addend: 0x0, symName: __ZNSt3__19make_pairB7v160006IP7ProcessS2_EENS_4pairINS_18__unwrap_ref_decayIT_E4typeENS4_IT0_E4typeEEEOS5_OS8_, symObjAddr: 0xAF10, symBinAddr: 0x100024224, symSize: 0x38 }
  - { offsetInCU: 0x8C54, offset: 0x4D81B, size: 0x8, addend: 0x0, symName: __ZNSt3__114__rewrap_rangeB7v160006IP7ProcessS2_EET_S3_T0_, symObjAddr: 0xAF48, symBinAddr: 0x10002425C, symSize: 0x2C }
  - { offsetInCU: 0x8CA0, offset: 0x4D867, size: 0x8, addend: 0x0, symName: __ZNSt3__113__rewrap_iterB7v160006IP7ProcessS2_NS_18__unwrap_iter_implIS2_Lb1EEEEET_S5_T0_, symObjAddr: 0xAF74, symBinAddr: 0x100024288, symSize: 0x50 }
  - { offsetInCU: 0x8D48, offset: 0x4D90F, size: 0x8, addend: 0x0, symName: __ZNSt3__19push_heapB7v160006INS_11__wrap_iterIP7ProcessEEN3srt20CompareRemainingTimeEEEvT_S7_T0_, symObjAddr: 0xB15C, symBinAddr: 0x100024404, symSize: 0x40 }
  - { offsetInCU: 0x8D9F, offset: 0x4D966, size: 0x8, addend: 0x0, symName: __ZNSt3__111__push_heapB7v160006INS_17_ClassicAlgPolicyENS_11__wrap_iterIP7ProcessEEN3srt20CompareRemainingTimeEEEvT0_S8_RT1_, symObjAddr: 0xC034, symBinAddr: 0x100024444, symSize: 0x5C }
  - { offsetInCU: 0xB628, offset: 0x501EF, size: 0x8, addend: 0x0, symName: __ZN3srt11print_eventEiRKNSt3__112basic_stringIcNS0_11char_traitsIcEENS0_9allocatorIcEEEERKNS0_14priority_queueI7ProcessNS0_6vectorISA_NS4_ISA_EEEENS_20CompareRemainingTimeEEE, symObjAddr: 0x0, symBinAddr: 0x100021450, symSize: 0x154 }
  - { offsetInCU: 0xB697, offset: 0x5025E, size: 0x8, addend: 0x0, symName: __ZNKSt3__114priority_queueI7ProcessNS_6vectorIS1_NS_9allocatorIS1_EEEEN3srt20CompareRemainingTimeEE5emptyB7v160006Ev, symObjAddr: 0x1E8, symBinAddr: 0x1000215A4, symSize: 0x28 }
  - { offsetInCU: 0xB6BD, offset: 0x50284, size: 0x8, addend: 0x0, symName: __ZNSt3__114priority_queueI7ProcessNS_6vectorIS1_NS_9allocatorIS1_EEEEN3srt20CompareRemainingTimeEEC1B7v160006ERKS8_, symObjAddr: 0x210, symBinAddr: 0x1000215CC, symSize: 0x34 }
  - { offsetInCU: 0xB6F6, offset: 0x502BD, size: 0x8, addend: 0x0, symName: __ZNKSt3__114priority_queueI7ProcessNS_6vectorIS1_NS_9allocatorIS1_EEEEN3srt20CompareRemainingTimeEE3topB7v160006Ev, symObjAddr: 0x244, symBinAddr: 0x100021600, symSize: 0x24 }
  - { offsetInCU: 0xB71C, offset: 0x502E3, size: 0x8, addend: 0x0, symName: __ZNSt3__114priority_queueI7ProcessNS_6vectorIS1_NS_9allocatorIS1_EEEEN3srt20CompareRemainingTimeEE3popEv, symObjAddr: 0x268, symBinAddr: 0x100021624, symSize: 0x50 }
  - { offsetInCU: 0xB744, offset: 0x5030B, size: 0x8, addend: 0x0, symName: __ZN3srt17calculate_new_tauEdidd, symObjAddr: 0x374, symBinAddr: 0x100021674, symSize: 0x4C }
  - { offsetInCU: 0xB7A4, offset: 0x5036B, size: 0x8, addend: 0x0, symName: __ZN3srt23compare_by_arrival_timeERK7ProcessS2_, symObjAddr: 0x3C0, symBinAddr: 0x1000216C0, symSize: 0x30 }
  - { offsetInCU: 0xB7D7, offset: 0x5039E, size: 0x8, addend: 0x0, symName: __ZN3srt8simulateEv, symObjAddr: 0x3F0, symBinAddr: 0x1000216F0, symSize: 0x1588 }
  - { offsetInCU: 0xB8D9, offset: 0x504A0, size: 0x8, addend: 0x0, symName: __ZNKSt3__16vectorI7ProcessNS_9allocatorIS1_EEE5emptyB7v160006Ev, symObjAddr: 0x1A54, symBinAddr: 0x100022C78, symSize: 0x28 }
  - { offsetInCU: 0xB8FF, offset: 0x504C6, size: 0x8, addend: 0x0, symName: __ZNSt3__16vectorI7ProcessNS_9allocatorIS1_EEE5frontB7v160006Ev, symObjAddr: 0x1AA4, symBinAddr: 0x100022CA0, symSize: 0x18 }
  - { offsetInCU: 0xB925, offset: 0x504EC, size: 0x8, addend: 0x0, symName: __ZNSt3__16vectorI7ProcessNS_9allocatorIS1_EEE5eraseB7v160006ENS_11__wrap_iterIPKS1_EE, symObjAddr: 0x1AF0, symBinAddr: 0x100022CB8, symSize: 0xBC }
  - { offsetInCU: 0xB984, offset: 0x5054B, size: 0x8, addend: 0x0, symName: __ZNSt3__111__wrap_iterIPK7ProcessEC1B7v160006IPS1_EERKNS0_IT_EEPNS_9enable_ifIXsr14is_convertibleIS7_S3_EE5valueEvE4typeE, symObjAddr: 0x1BAC, symBinAddr: 0x100022D74, symSize: 0x3C }
  - { offsetInCU: 0xB9D0, offset: 0x50597, size: 0x8, addend: 0x0, symName: __ZNSt3__114priority_queueI7ProcessNS_6vectorIS1_NS_9allocatorIS1_EEEEN3srt20CompareRemainingTimeEE4pushERKS1_, symObjAddr: 0x1C00, symBinAddr: 0x100022DB0, symSize: 0x58 }
  - { offsetInCU: 0xBA07, offset: 0x505CE, size: 0x8, addend: 0x0, symName: __ZNK3srt16write_statisticsERKNSt3__112basic_stringIcNS0_11char_traitsIcEENS0_9allocatorIcEEEE, symObjAddr: 0x2244, symBinAddr: 0x100022E08, symSize: 0x8B4 }
  - { offsetInCU: 0xBB47, offset: 0x5070E, size: 0x8, addend: 0x0, symName: __ZNSt3__114priority_queueI7ProcessNS_6vectorIS1_NS_9allocatorIS1_EEEEN3srt20CompareRemainingTimeEEC2B7v160006ERKS8_, symObjAddr: 0x64C8, symBinAddr: 0x1000236BC, symSize: 0x34 }
  - { offsetInCU: 0xBBA3, offset: 0x5076A, size: 0x8, addend: 0x0, symName: __ZNKSt3__16vectorI7ProcessNS_9allocatorIS1_EEE5frontB7v160006Ev, symObjAddr: 0x7310, symBinAddr: 0x1000236F0, symSize: 0x18 }
  - { offsetInCU: 0xBBC9, offset: 0x50790, size: 0x8, addend: 0x0, symName: __ZNSt3__16vectorI7ProcessNS_9allocatorIS1_EEE8pop_backEv, symObjAddr: 0x7380, symBinAddr: 0x100023760, symSize: 0x2C }
  - { offsetInCU: 0xBBF1, offset: 0x507B8, size: 0x8, addend: 0x0, symName: __ZNK3srt20CompareRemainingTimeclERK7ProcessS3_, symObjAddr: 0x7960, symBinAddr: 0x100023BE4, symSize: 0x90 }
  - { offsetInCU: 0xBC33, offset: 0x507FA, size: 0x8, addend: 0x0, symName: __ZNSt3__16vectorI7ProcessNS_9allocatorIS1_EEE17__destruct_at_endB7v160006EPS1_, symObjAddr: 0x7DBC, symBinAddr: 0x100023CA4, symSize: 0x88 }
  - { offsetInCU: 0xBC77, offset: 0x5083E, size: 0x8, addend: 0x0, symName: __ZNSt3__16vectorI7ProcessNS_9allocatorIS1_EEE27__invalidate_iterators_pastB7v160006EPS1_, symObjAddr: 0x7E44, symBinAddr: 0x100023D2C, symSize: 0x14 }
  - { offsetInCU: 0xBCAE, offset: 0x50875, size: 0x8, addend: 0x0, symName: __ZNKSt3__16vectorI7ProcessNS_9allocatorIS1_EEE17__annotate_shrinkB7v160006Em, symObjAddr: 0x7E58, symBinAddr: 0x100023D40, symSize: 0xD0 }
  - { offsetInCU: 0xBCE3, offset: 0x508AA, size: 0x8, addend: 0x0, symName: __ZNKSt3__16vectorI7ProcessNS_9allocatorIS1_EEE6cbeginB7v160006Ev, symObjAddr: 0xAA98, symBinAddr: 0x100023E88, symSize: 0x2C }
  - { offsetInCU: 0xBD2D, offset: 0x508F4, size: 0x8, addend: 0x0, symName: __ZNKSt3__111__move_loopINS_17_ClassicAlgPolicyEEclB7v160006IP7ProcessS5_S5_EENS_4pairIT_T1_EES7_T0_S8_, symObjAddr: 0xAE5C, symBinAddr: 0x100024170, symSize: 0x90 }
  - { offsetInCU: 0xBD98, offset: 0x5095F, size: 0x8, addend: 0x0, symName: __ZNSt3__118__unwrap_iter_implIP7ProcessLb1EE8__unwrapB7v160006ES2_, symObjAddr: 0xAFC4, symBinAddr: 0x1000242D8, symSize: 0x24 }
  - { offsetInCU: 0xBDBB, offset: 0x50982, size: 0x8, addend: 0x0, symName: __ZNSt3__14pairIP7ProcessS2_EC1B7v160006ERKS2_S5_, symObjAddr: 0xAFE8, symBinAddr: 0x1000242FC, symSize: 0x3C }
  - { offsetInCU: 0xBE01, offset: 0x509C8, size: 0x8, addend: 0x0, symName: __ZNSt3__14pairIP7ProcessS2_EC2B7v160006ERKS2_S5_, symObjAddr: 0xB024, symBinAddr: 0x100024338, symSize: 0x34 }
  - { offsetInCU: 0xBE47, offset: 0x50A0E, size: 0x8, addend: 0x0, symName: __ZNSt3__118__unwrap_iter_implIP7ProcessLb1EE8__rewrapB7v160006ES2_S2_, symObjAddr: 0xB058, symBinAddr: 0x10002436C, symSize: 0x58 }
  - { offsetInCU: 0xBE78, offset: 0x50A3F, size: 0x8, addend: 0x0, symName: __ZNSt3__111__wrap_iterIPK7ProcessEC2B7v160006IPS1_EERKNS0_IT_EEPNS_9enable_ifIXsr14is_convertibleIS7_S3_EE5valueEvE4typeE, symObjAddr: 0xB0B0, symBinAddr: 0x1000243C4, symSize: 0x40 }
  - { offsetInCU: 0x75CF, offset: 0x580A5, size: 0x8, addend: 0x0, symName: __ZNSt3__1eqB7v160006INS_9allocatorIcEEEEbRKNS_12basic_stringIcNS_11char_traitsIcEET_EES9_, symObjAddr: 0x658, symBinAddr: 0x100024868, symSize: 0x148 }
  - { offsetInCU: 0xA984, offset: 0x5B45A, size: 0x8, addend: 0x0, symName: __ZN3sjf17calculate_new_tauEdidd, symObjAddr: 0x0, symBinAddr: 0x1000244A0, symSize: 0x50 }
  - { offsetInCU: 0xA9E4, offset: 0x5B4BA, size: 0x8, addend: 0x0, symName: __ZN3sjf10CompareTauERK7ProcessS2_, symObjAddr: 0x50, symBinAddr: 0x1000244F0, symSize: 0x8C }
  - { offsetInCU: 0xAA17, offset: 0x5B4ED, size: 0x8, addend: 0x0, symName: __ZN3sjfC2ENSt3__16vectorI7ProcessNS0_9allocatorIS2_EEEEidd, symObjAddr: 0x114, symBinAddr: 0x10002457C, symSize: 0x150 }
  - { offsetInCU: 0xAA99, offset: 0x5B56F, size: 0x8, addend: 0x0, symName: __ZN3sjfC1ENSt3__16vectorI7ProcessNS0_9allocatorIS2_EEEEidd, symObjAddr: 0x350, symBinAddr: 0x1000246CC, symSize: 0x4C }
  - { offsetInCU: 0xAAFE, offset: 0x5B5D4, size: 0x8, addend: 0x0, symName: __ZN3sjf11print_eventEiRKNSt3__112basic_stringIcNS0_11char_traitsIcEENS0_9allocatorIcEEEERKNS0_6vectorI7ProcessNS4_ISA_EEEE, symObjAddr: 0x39C, symBinAddr: 0x100024718, symSize: 0x11C }
  - { offsetInCU: 0xAB6D, offset: 0x5B643, size: 0x8, addend: 0x0, symName: __ZN3sjf12processHasIdERK7ProcessRKNSt3__112basic_stringIcNS3_11char_traitsIcEENS3_9allocatorIcEEEE, symObjAddr: 0x624, symBinAddr: 0x100024834, symSize: 0x34 }
  - { offsetInCU: 0xABB1, offset: 0x5B687, size: 0x8, addend: 0x0, symName: __ZN3sjf23compare_by_arrival_timeERK7ProcessS2_, symObjAddr: 0x7A0, symBinAddr: 0x1000249B0, symSize: 0x30 }
  - { offsetInCU: 0xABE4, offset: 0x5B6BA, size: 0x8, addend: 0x0, symName: __ZN3sjf8simulateEv, symObjAddr: 0x7D0, symBinAddr: 0x1000249E0, symSize: 0x16A8 }
  - { offsetInCU: 0xAD9A, offset: 0x5B870, size: 0x8, addend: 0x0, symName: __Z5roundB7v160006IiENSt3__19enable_ifIXsr3std11is_integralIT_EE5valueEdE4typeES2_, symObjAddr: 0x25E0, symBinAddr: 0x100026088, symSize: 0x24 }
  - { offsetInCU: 0xADD2, offset: 0x5B8A8, size: 0x8, addend: 0x0, symName: __ZNK3sjf16write_statisticsERKNSt3__112basic_stringIcNS0_11char_traitsIcEENS0_9allocatorIcEEEE, symObjAddr: 0x28C4, symBinAddr: 0x1000260AC, symSize: 0x8B4 }
...
